MPASM 5.87                      COMPLETE.ASM   6-24-2020  7:08:30         PAGE  1


LOC  OBJECT CODE     LINE SOURCE TEXT
  VALUE

                      00001 ;;;;;;;;;;;;;;;;;;;;;;;;;;;;;;;;;;;;;;;;;;;;;;;;;;;;;;;;;;;;;;;;;;;;;;;;;;;;;;;;   
                      00002 ;Device definition and header file
                      00003 ;;;;;;;;;;;;;;;;;;;;;;;;;;;;;;;;;;;;;;;;;;;;;;;;;;;;;;;;;;;;;;;;;;;;;;;;;;;;;;;;    
                      00004     list        p=PIC18F45K22
                      00005     #include    "p18f45K22.inc"
                      00001         LIST
                      00002 
                      00003 ;==========================================================================
                      00004 ; Build date : Jan 06 2020
                      00005 ;  MPASM PIC18F45K22 processor include
                      00006 ; 
                      00007 ;  (c) Copyright 1999-2020 Microchip Technology, All rights reserved
                      00008 ;==========================================================================
                      00009 
                      02795         LIST
                      00006 ;;;;;;;;;;;;;;;;;;;;;;;;;;;;;;;;;;;;;;;;;;;;;;;;;;;;;;;;;;;;;;;;;;;;;;;;;;;;;;;;   
                      00007 ;Configuration bits
                      00008 ;;;;;;;;;;;;;;;;;;;;;;;;;;;;;;;;;;;;;;;;;;;;;;;;;;;;;;;;;;;;;;;;;;;;;;;;;;;;;;;;   
                      00009     CONFIG  FOSC = INTIO67
                      00010     CONFIG  WDTEN = OFF
                      00011     CONFIG  LVP = ON
                      00012 ;;;;;;;;;;;;;;;;;;;;;;;;;;;;;;;;;;;;;;;;;;;;;;;;;;;;;;;;;;;;;;;;;;;;;;;;;;;;;;;;   
                      00013 ;Variables in RAM
                      00014 ;;;;;;;;;;;;;;;;;;;;;;;;;;;;;;;;;;;;;;;;;;;;;;;;;;;;;;;;;;;;;;;;;;;;;;;;;;;;;;;;
Warning[207]: Found label after column 1. (NUME)
  00000000            00015     NUME    EQU     0x00 ;Numerator Ram location
Warning[207]: Found label after column 1. (QU)
  00000020            00016     QU      EQU     0x20 ;Quotient Ram location
Warning[207]: Found label after column 1. (COUNT)
  00000010            00017     COUNT   EQU     0x10 ;Count Reg
Warning[207]: Found label after column 1. (CNTVAL)
  00000003            00018     CNTVAL  EQU     d'3' ;count value
Warning[207]: Found label after column 1. (DEN)
  0000000A            00019     DEN     EQU     d'10';Divide by 10
Warning[207]: Found label after column 1. (UNPBCDA)
  00000030            00020     UNPBCDA EQU     0x30
Warning[207]: Found label after column 1. (RESULT)
  00000040            00021     RESULT  EQU     0x40
                      00022 ;;;;;;;;;;;;;;;;;;;;;;;;;;;;;;;;;;;;;;;;;;;;;;;;;;;;;;;;;;;;;;;;;;;;;;;;;;;;;;;;
                      00023 ;Variable Declaration
                      00024 ;;;;;;;;;;;;;;;;;;;;;;;;;;;;;;;;;;;;;;;;;;;;;;;;;;;;;;;;;;;;;;;;;;;;;;;;;;;;;;;;
                      00025     cblock  0x00
  00000000            00026         INPUT
  00000001            00027         Char1
  00000002            00028         Char2
  00000003            00029         Char3
  00000004            00030         Char4
  00000005            00031         Char5
  00000006            00032         Char6
  00000007            00033         Char7
  00000008            00034         Char8
  00000009            00035         Count
  0000000A            00036         NumL
MPASM 5.87                      COMPLETE.ASM   6-24-2020  7:08:30         PAGE  2


LOC  OBJECT CODE     LINE SOURCE TEXT
  VALUE

  0000000B            00037         NumH
  0000000C            00038         STORED
  0000000D            00039         STORE_OLD
  0000000E            00040         STORED_OLD
  0000000F            00041         ADRR
  00000010            00042         EDATA
  00000011            00043         Cap
  00000012            00044         DelayCount
  00000013            00045         DelayCount1
  00000014            00046         BreN
  00000015            00047         BreO
  00000016            00048         BreI
  00000017            00049         NIB1
  00000018            00050         NIB2
  00000019            00051         NIB3
  0000001A            00052         ADDRESS
  0000001B            00053         CHAR
  0000001C            00054         Timecnt
  0000001D            00055         TimeAvgOld
  0000001E            00056         TimeAvg
  0000001F            00057         MINUTE
  00000020            00058         RMDH
  00000021            00059         RMDM
  00000022            00060         RMDL
  00000023            00061         BRH
  00000024            00062         BRM
  00000025            00063         BRL
  00000026            00064         Lcnt
  00000027            00065         Temp
  00000028            00066         Y1
  00000029            00067         Delta
  0000002A            00068         Der
  0000002B            00069         DerR
  0000002C            00070         Timecnt1
  0000002D            00071         DIFFLOW
  0000002E            00072         DIFFHIGH
  0000002F            00073         I2C_DATA
  00000030            00074         CHAR_H
  00000031            00075         CHAR_E
  00000032            00076         CHAR_L
  00000033            00077         CHAR_O
  00000034            00078         CHAR_SPACE
  00000035            00079         CHAR_W
  00000036            00080         CHAR_R
  00000037            00081         CHAR_D
  00000038            00082         CHAR_EX
  00000039            00083         Calresult
                      00084         
                      00085     endc
                      00086 ;;;;;;;;;;;;;;;;;;;;;;;;;;;;;;;;;;;;;;;;;;;;;;;;;;;;;;;;;;;;;;;;;;;;;;;;;;;;;;;;
                      00087 ;Vectors
                      00088 ;;;;;;;;;;;;;;;;;;;;;;;;;;;;;;;;;;;;;;;;;;;;;;;;;;;;;;;;;;;;;;;;;;;;;;;;;;;;;;;;
                      00089     org     0x0000
MPASM 5.87                      COMPLETE.ASM   6-24-2020  7:08:30         PAGE  3


LOC  OBJECT CODE     LINE SOURCE TEXT
  VALUE

000000 EF?? F???      00090     goto    Start
                      00091     org     08h
000008 A0F2           00092     BTFSS   INTCON,RBIF
00000A EF?? F???      00093     goto    TIME_TEST 
00000E EF?? F???      00094     goto    ISR_PORT
000012                00095 TIME_TEST   
000012 A4F2           00096     BTFSS   INTCON,TMR0IF
000014 0010           00097     RETFIE
000016 EF?? F???      00098     goto    ISR_TIME
                      00099 ;;;;;;;;;;;;;;;;;;;;;;;;;;;;;;;;;;;;;;;;;;;;;;;;;;;;;;;;;;;;;;;;;;;;;;;;;;;;;;;;
                      00100 ;Setup
                      00101 ;;;;;;;;;;;;;;;;;;;;;;;;;;;;;;;;;;;;;;;;;;;;;;;;;;;;;;;;;;;;;;;;;;;;;;;;;;;;;;;;
00001A                00102 Start
00001A 010F           00103     MOVLB   0xF
                      00104    ;Variable Initialization
00001C 6A00           00105     CLRF    INPUT
00001E 0E30           00106     MOVLW   b'00110000'
000020 6E11           00107     MOVWF   Cap
000022 0E02           00108     MOVLW   0x02
000024 6E1C           00109     MOVWF   Timecnt
000026 6A2C           00110     CLRF    Timecnt1
000028 0EEF           00111     MOVLW   0xEF ;Hex for 239 
00002A 6E1F           00112     MOVWF   MINUTE
00002C 6A1D           00113     CLRF    TimeAvgOld
00002E 6A1E           00114     CLRF    TimeAvg
000030 6A20           00115     CLRF    RMDH
000032 6A21           00116     CLRF    RMDM
000034 6A22           00117     CLRF    RMDL
000036 0E00           00118     MOVLW   .0
000038 6E1D           00119     MOVWF   TimeAvgOld
00003A 0EAB           00120     MOVLW   .171
00003C 6E29           00121     MOVWF   Delta
00003E 0E09           00122     MOVLW   .9
000040 6E2E           00123     MOVWF   DIFFHIGH
000042 0E13           00124     MOVLW   .19
000044 6E2D           00125     MOVWF   DIFFLOW
                      00126    ;Oscillator Setup (Page 30)
000046 88D3           00127     BSF         OSCCON,IRCF0
000048 9AD3           00128     BCF         OSCCON,IRCF1
00004A 8CD3           00129     BSF         OSCCON,IRCF2
00004C                00130 IOSC    
00004C A4D3           00131     BTFSS       OSCCON,IOFS     ; Is the Internal Oscillator Stable Yet?
00004E EF?? F???      00132     GOTO        IOSC
                      00133     
                      00134    ;I/O Port Setup
                      00135         ;Tris controls weather the port is set as an input or output  0=output
                      00136         ;ANSELA controls weather the port is set as digital or analog 0=digital
                      00137     ;Port A
000052 8092           00138     BSF          TRISA,0        ;Set RA0 as input
000054 8138           00139     BSF          ANSELA,0       ;Set RA0 to analog
000056 9892           00140     BCF          TRISA,4        ;Set RA4 as output (Curiosity led D2)
000058 9938           00141     BCF          ANSELA,4       ;Set RA4 as digital
00005A 9A92           00142     BCF          TRISA,5        ;Set RA4 as output (Curiosity led D3)
MPASM 5.87                      COMPLETE.ASM   6-24-2020  7:08:30         PAGE  4


LOC  OBJECT CODE     LINE SOURCE TEXT
  VALUE

00005C 9B38           00143     BCF          ANSELA,5       ;Set RA4 as digital
00005E 9C92           00144     BCF          TRISA,6        ;Set RA4 as output (Curiosity led D4)
000060 9D38           00145     BCF          ANSELA,6       ;Set RA4 as digital
000062 9E92           00146     BCF          TRISA,7        ;Set RA4 as output (Curiosity led D5)
000064 9F38           00147     BCF          ANSELA,7       ;Set RA4 as digital
                      00148     ;Port B
000066 6A93           00149    CLRF          TRISB
000068 8A93           00150    BSF           TRISB,5
00006A 9B39           00151    BCF           ANSELB,5
00006C 8893           00152    BSF           TRISB,4
00006E 9939           00153    BCF           ANSELB,4
                      00154     ;Port C
                      00155         ;TX pin for UART must be set as digital input
000070 8C94           00156    BSF          TRISC,RC6       ;TX
000072 9D3A           00157    BCF          ANSELC,RC6      ;TX
                      00158         ;RX pin for UART must be set as digital input
000074 8E94           00159    BSF          TRISC,RC7       ;RX
000076 9F3A           00160    BCF          ANSELC,RC7      ;RX
                      00161         ;SCL pin for I2C must be set as an output
000078 8694           00162     BSF     TRISC,   RC3            
00007A 8894           00163     BSF     TRISC,   RC4            
00007C 973A           00164     BCF     ANSELC,  RC3            
00007E 993A           00165     BCF     ANSELC,  RC4
000080 8882           00166     bsf     PORTC,SDA
                      00167         ;Port D
000082 6A95           00168     CLRF    TRISD
000084 933B           00169     BCF     ANSELD,1
000086 6A8C           00170     CLRF    LATD
                      00171    ;UART Setup
                      00172     ;Baud Rate Config
000088 0E0C           00173    MOVLW        d'12'           ; 19200 BAUD @ 4 MHz
00008A 6EAF           00174    MOVWF        SPBRG1          ; load baudrate register
00008C 6AB0           00175    CLRF         SPBRGH1
00008E 84AC           00176    BSF          TXSTA1,BRGH     ; Enable high BAUDrate
000090 96B8           00177    BCF          BAUDCON1,BRG16  ; Use 8 bit baud generator
                      00178     ;Enable asynchronous serial port
000092 98AC           00179    BCF          TXSTA1,SYNC     ; Enable asynchronous transmission
000094 8EAB           00180    BSF          RCSTA1,SPEN     ; Enable Serial Port (Datasheet RX#3)
                      00181     ;Transmit setup (TX)
000096 98B8           00182    BCF          BAUDCON1,CKTXP  ; Inverted polarity
000098 8AAC           00183    BSF          TXSTA1,TXEN     ; Enable transmit
                      00184     ;Receive setup (RX)
00009A 9AB8           00185    BCF          BAUDCON1,DTRXP  ; Inverted polarity (Datasheet RX#5)
00009C 88AB           00186    BSF          RCSTA1,CREN     ; Enable continuous reception (Datasheet RX#6)
00009E 8CF2           00187    BSF          INTCON,PEIE
                      00188    
                      00189    ;ADC Setup (Page 289)
                      00190     ;ADCON0
0000A0 0E05           00191    MOVLW        b'00000101' ; AN1,ADC on
0000A2 6EC2           00192    MOVWF        ADCON0 
                      00193    ;MOVLW       b'00000001' ; AN1,ADC on
                      00194    ;MOVWF       ADCON0
                      00195     ;ADCON1
MPASM 5.87                      COMPLETE.ASM   6-24-2020  7:08:30         PAGE  5


LOC  OBJECT CODE     LINE SOURCE TEXT
  VALUE

0000A4 0E00           00196    MOVLW        b'00000000' ; ADC ref = Vdd,Vss
0000A6 6EC1           00197    MOVWF        ADCON1
                      00198     ;ADCON 2
0000A8 0E2E           00199    MOVLW        b'00101110'; left justify 
0000AA 6EC0           00200    MOVWF        ADCON2     ; Frc , Acquisition Time
0000AC 82C2           00201    BSF          ADCON0,GO  ;    Starts the adc module
                      00202    
                      00203    ;PWM Setup (Page 180)
                      00204     ;PWM period setup (Formula Page 181)
0000AE 0EFF           00205    MOVLW        0xFF    
0000B0 6EBB           00206    MOVWF        PR2
                      00207     ;Timer2 Setup
0000B2 0E7A           00208    MOVLW        b'01111010' ;l:16 Prescale there is no Postscale
0000B4 6EBA           00209    MOVWF        T2CON       ;with timer2 and PWM
                      00210     ;Set Which timer to use
0000B6 0E00           00211    MOVLW        b'00000000'
0000B8 6F49           00212    MOVWF        CCPTMRS0
                      00213     ;Setup the compare module
0000BA 0E2C           00214    MOVLW        b'00101100'
0000BC 6F57           00215    MOVWF        CCP4CON
                      00216     ;Setup Pulse width/Duty Cycle (Note its a 10bit value)
0000BE 9B57           00217    BCF          CCP4CON,5   ;Controls the PWM decimal 
0000C0 9957           00218    BCF          CCP4CON,4   ;Controls the PWM decimal
0000C2 0E4C           00219    MOVLW        .76
0000C4 6F58           00220    MOVWF        CCPR4L
                      00221    ;Start the PWM on PIN D1
0000C6 84BA           00222    BSF          T2CON,2
                      00223    ;Timer Setup     (Page 155)
                      00224     ;Timer0
0000C8 0E01           00225    MOVLW        b'00000001'
0000CA 6ED5           00226    MOVWF        T0CON
                      00227    ;Interupts
0000CC 9EF2           00228    BCF          INTCON,GIE      ;Global Interupts Enable
0000CE 90F2           00229    BCF          INTCON,RBIF     ;Chnage to portB<4:7> intterupt flag clear
0000D0 86F2           00230    BSF          INTCON,RBIE     ;Chnage to portB<4:7> intterupt enable
0000D2 94F2           00231    BCF          INTCON,TMR0IF   ;Timer0 intterupt flag clear
0000D4 8AF2           00232    BSF          INTCON,TMR0IE   ;Timer0 intterupt enable
0000D6 9A62           00233    BCF          IOCB,5
                      00234    ;I2C
                      00235     ;Baudrate config (100KHz) Eq.15-1 Page 251
0000D8 0E09           00236    MOVLW        0x09        
0000DA 6EC8           00237    MOVWF        SSP1ADD
                      00238     ;Clear the START/STOP bits
0000DC 6AC7           00239    CLRF         SSP1STAT 
0000DE 8EC7           00240    BSF          SSP1STAT, SMP       
0000E0 8CC7           00241    BSF          SSP1STAT, CKE
                      00242    ;I2C Master Mode
0000E2 90C6           00243    BCF          SSP1CON1, SSPM0     ; 1000
0000E4 92C6           00244    BCF          SSP1CON1, SSPM1     ; 
0000E6 94C6           00245    BCF          SSP1CON1, SSPM2     ; 
0000E8 86C6           00246    BSF          SSP1CON1, SSPM3     ; 
0000EA 8AC6           00247    BSF          SSP1CON1, SSPEN     ;
0000EC 969E           00248    BCF          PIR1,SSP1IF
MPASM 5.87                      COMPLETE.ASM   6-24-2020  7:08:30         PAGE  6


LOC  OBJECT CODE     LINE SOURCE TEXT
  VALUE

0000EE 0100           00249    MOVLB        0x0
0000F0 EC?? F???      00250    CALL         LCD_INT
0000F4 9ED5           00251    BCF          T0CON,TMR0ON    ;Turn on timer0
0000F6 94BA           00252    BCF          T2CON,TMR2ON
0000F8 EF?? F???      00253    GOTO         Main
                      00254    
                      00255 ;;;;;;;;;;;;;;;;;;;;;;;;;;;;;;;;;;;;;;;;;;;;;;;;;;;;;;;;;;;;;;;;;;;;;;;;;;;;;;;;
                      00256 ;Delay Subroutines
                      00257 ;;;;;;;;;;;;;;;;;;;;;;;;;;;;;;;;;;;;;;;;;;;;;;;;;;;;;;;;;;;;;;;;;;;;;;;;;;;;;;;;
0000FC                00258 DELAY_1:        ;(172ms)
0000FC 0EE0           00259     movlw       0xE0
0000FE 6E12           00260     movwf       DelayCount
000100 6E13           00261     movwf       DelayCount1
000102                00262 Loop1
000102 2E12           00263     decfsz      DelayCount,f
000104 EF?? F???      00264     goto        Loop2
000108 0012           00265     RETURN
00010A                00266 Loop2
00010A 2E13           00267     decfsz      DelayCount1,f
00010C EF?? F???      00268     goto        $-2
000110 EF?? F???      00269     goto        Loop1
                      00270     
000114                00271 DELAY_2:        ;(5ms)
000114 0E08           00272     movlw       0x08
000116 6E12           00273     movwf       DelayCount
000118 0E70           00274     movlw       0x70
00011A 6E13           00275     movwf       DelayCount1
00011C                00276 Loop3
00011C 2E12           00277     decfsz      DelayCount,f
00011E EF?? F???      00278     goto        Loop4
000122 0012           00279     RETURN
000124                00280 Loop4
000124 2E13           00281     decfsz      DelayCount1,f
000126 EF?? F???      00282     goto        $-2
00012A EF?? F???      00283     goto        Loop3
                      00284     
00012E                00285 DELAY_3:        ;(1ms)
00012E 0E03           00286     movlw       0x03
000130 6E12           00287     movwf       DelayCount
000132 0E60           00288     movlw       0x60
000134 6E13           00289     movwf       DelayCount1
000136                00290 Loop5
000136 2E12           00291     decfsz      DelayCount,f
000138 EF?? F???      00292     goto        Loop6
00013C 0012           00293     RETURN
00013E                00294 Loop6
00013E 2E13           00295     decfsz      DelayCount1,f
000140 EF?? F???      00296     goto        $-2
000144 EF?? F???      00297     goto        Loop5
                      00298     
000148                00299 DELAY_4:        ;(70us)
000148 0E02           00300     movlw       0x02
00014A 6E12           00301     movwf       DelayCount
MPASM 5.87                      COMPLETE.ASM   6-24-2020  7:08:30         PAGE  7


LOC  OBJECT CODE     LINE SOURCE TEXT
  VALUE

00014C 0E12           00302     movlw       0x12
00014E 6E13           00303     movwf       DelayCount1
000150                00304 Loop7
000150 2E12           00305     decfsz      DelayCount,f
000152 EF?? F???      00306     goto        Loop8
000156 0012           00307     RETURN
000158                00308 Loop8
000158 2E13           00309     decfsz      DelayCount1,f
00015A EF?? F???      00310     goto        $-2
00015E EF?? F???      00311     goto        Loop7
000162                00312 Derivative_DELAY:
000162 0EE0           00313     movlw       0xE0
000164 6E12           00314     movwf       DelayCount
000166 6E13           00315     movwf       DelayCount1
000168                00316 Loop9
000168 2E12           00317     decfsz      DelayCount,f
00016A EF?? F???      00318     goto        Loop10
00016E 0012           00319     RETURN
000170                00320 Loop10
000170 2E13           00321     decfsz      DelayCount1,f
000172 EF?? F???      00322     goto        $-2
000176 EF?? F???      00323     goto        Loop9
00017A 0012           00324     RETURN
                      00325 ;;;;;;;;;;;;;;;;;;;;;;;;;;;;;;;;;;;;;;;;;;;;;;;;;;;;;;;;;;;;;;;;;;;;;;;;;;;;;;;;
                      00326 ;UART Subroutines
                      00327 ;;;;;;;;;;;;;;;;;;;;;;;;;;;;;;;;;;;;;;;;;;;;;;;;;;;;;;;;;;;;;;;;;;;;;;;;;;;;;;;;
                      00328 ;Recive a byte of data 
00017C                00329 CLEAR:
00017C 6A00           00330    CLRF         INPUT
00017E 6AAE           00331    CLRF         RCREG1
000180 9A9E           00332    BCF          PIR1,RCIF
000182 6A09           00333    CLRF         Count           ;Reset Count
000184 0012           00334    RETURN
000186                00335 READ_IN:
000186 AA9E           00336    BTFSS        PIR1,RCIF
000188 EF?? F???      00337    GOTO         $-2
00018C CFAE F000      00338    MOVFF        RCREG1,INPUT
000190 0012           00339    RETURN
000192                00340 RX_DATA:
000192 EC?? F???      00341    CALL         READ_IN         ;Call RX 
000196 6AAE           00342    CLRF         RCREG1          ;Clear the RX_Register
000198 9A9E           00343    BCF          PIR1,RCIF       ;Clear the RX_Flag
                      00344     
00019A C000 FFE8      00345    MOVFF        INPUT,WREG      ;Move Value from RX to WREG
00019E 0A0D           00346    xorlw        '\r'            ;Test to see if enter key was pressed
0001A0 B4D8           00347    btfsc        STATUS,Z
0001A2 0012           00348    RETURN                       ;Exit Instruction
                      00349     
0001A4 2A09           00350    INCF         Count           ;Increment count
0001A6 C009 FFE8      00351    MOVFF        Count,WREG      ;Move Value from count to WREG
0001AA 0A01           00352    xorlw        .1
0001AC B4D8           00353    btfsc        STATUS,Z        ;If count is 1 then INPUT -> Char 1
0001AE C000 F008      00354    MOVFF        INPUT,Char8
MPASM 5.87                      COMPLETE.ASM   6-24-2020  7:08:30         PAGE  8


LOC  OBJECT CODE     LINE SOURCE TEXT
  VALUE

0001B2 0A03           00355    xorlw        .2^.1
0001B4 B4D8           00356    btfsc        STATUS,Z        ;If count is 2 then INPUT -> Char 2
0001B6 C000 F007      00357    MOVFF        INPUT,Char7
0001BA 0A01           00358    xorlw        .3^.2
0001BC B4D8           00359    btfsc        STATUS,Z        ;If count is 3 then INPUT -> Char 3
0001BE C000 F006      00360    MOVFF        INPUT,Char6
0001C2 0A07           00361    xorlw        .4^.3
0001C4 B4D8           00362    btfsc        STATUS,Z        ;If count is 4 then INPUT -> Char 4
0001C6 C000 F005      00363    MOVFF        INPUT,Char5
0001CA 0A01           00364    xorlw        .5^.4
0001CC B4D8           00365    btfsc        STATUS,Z        ;If count is 5 then INPUT -> Char 5
0001CE C000 F004      00366    MOVFF        INPUT,Char4
0001D2 0A03           00367    xorlw        .6^.5
0001D4 B4D8           00368    btfsc        STATUS,Z        ;If count is 6 then INPUT -> Char 6
0001D6 C000 F003      00369    MOVFF        INPUT,Char3
0001DA 0A01           00370    xorlw        .7^.6
0001DC B4D8           00371    btfsc        STATUS,Z        ;If count is 7 then INPUT -> Char 7
0001DE C000 F002      00372    MOVFF        INPUT,Char2
0001E2 0A0F           00373    xorlw        .8^.7
0001E4 B4D8           00374    btfsc        STATUS,Z        ;If count is 8 then INPUT -> Char 8
0001E6 C000 F001      00375    MOVFF        INPUT,Char1
0001EA EC?? F???      00376    CALL         RX_DATA
                      00377    
                      00378 ;Transmits 1 bit of data from WREG  
0001EE                00379 BYTE_TX
0001EE 6EAD           00380    MOVWF        TXREG1
0001F0                00381 POLL_TX
0001F0 A2AC           00382    BTFSS        TXSTA1,TRMT
0001F2 EF?? F???      00383    GOTO         POLL_TX
0001F6 0012           00384    RETURN
0001F8                00385 Menu:
0001F8 EC?? F???      00386     CALL        Line
0001FC 0E4D           00387     MOVLW       'M'
0001FE EC?? F???      00388     CALL        BYTE_TX
000202 0E65           00389     MOVLW       'e'
000204 EC?? F???      00390     CALL        BYTE_TX
000208 0E6E           00391     MOVLW       'n'
00020A EC?? F???      00392     CALL        BYTE_TX
00020E 0E75           00393     MOVLW       'u'
000210 EC?? F???      00394     CALL        BYTE_TX
000214 EC?? F???      00395     CALL        Line
000218 EC?? F???      00396     CALL        MES_RET
00021C 0E31           00397     MOVLW       '1'
00021E EC?? F???      00398     CALL        BYTE_TX
000222 0E29           00399     MOVLW       ')'
000224 EC?? F???      00400     CALL        BYTE_TX
000228 0E20           00401     MOVLW       ' '
00022A EC?? F???      00402     CALL        BYTE_TX
00022E 0E43           00403     movlw       'C'
000230 EC?? F???      00404     CALL        BYTE_TX
000234 0E61           00405     movlw       'a'
000236 EC?? F???      00406     CALL        BYTE_TX 
00023A 0E6C           00407     movlw       'l'
MPASM 5.87                      COMPLETE.ASM   6-24-2020  7:08:30         PAGE  9


LOC  OBJECT CODE     LINE SOURCE TEXT
  VALUE

00023C EC?? F???      00408     CALL        BYTE_TX
000240 0E69           00409     movlw       'i'
000242 EC?? F???      00410     CALL        BYTE_TX
000246 0E62           00411     movlw       'b'
000248 EC?? F???      00412     CALL        BYTE_TX
00024C 0E72           00413     movlw       'r'
00024E EC?? F???      00414     CALL        BYTE_TX
000252 0E61           00415     movlw       'a'
000254 EC?? F???      00416     CALL        BYTE_TX 
000258 0E74           00417     movlw       't'
00025A EC?? F???      00418     CALL        BYTE_TX
00025E 0E69           00419     movlw       'i'
000260 EC?? F???      00420     CALL        BYTE_TX
000264 0E6F           00421     movlw       'o'
000266 EC?? F???      00422     CALL        BYTE_TX
00026A 0E6E           00423     movlw       'n'
00026C EC?? F???      00424     CALL        BYTE_TX
000270 EC?? F???      00425     CALL        MES_RET
000274 0E32           00426     MOVLW       '2'
000276 EC?? F???      00427     CALL        BYTE_TX
00027A 0E29           00428     MOVLW       ')'
00027C EC?? F???      00429     CALL        BYTE_TX
000280 0E20           00430     MOVLW       ' '
000282 EC?? F???      00431     CALL        BYTE_TX
000286 0E53           00432     movlw       'S'
000288 EC?? F???      00433     CALL        BYTE_TX
00028C 0E74           00434     movlw       't'
00028E EC?? F???      00435     CALL        BYTE_TX 
000292 0E61           00436     movlw       'a'
000294 EC?? F???      00437     CALL        BYTE_TX
000298 0E72           00438     movlw       'r'
00029A EC?? F???      00439     CALL        BYTE_TX
00029E 0E74           00440     movlw       't'
0002A0 EC?? F???      00441     CALL        BYTE_TX
0002A4 EC?? F???      00442     CALL        MES_RET
0002A8 0E33           00443     MOVLW       '3'
0002AA EC?? F???      00444     CALL        BYTE_TX
0002AE 0E29           00445     MOVLW       ')'
0002B0 EC?? F???      00446     CALL        BYTE_TX
0002B4 0E20           00447     MOVLW       ' '
0002B6 EC?? F???      00448     CALL        BYTE_TX
0002BA 0E4C           00449     movlw       'L'
0002BC EC?? F???      00450     CALL        BYTE_TX
0002C0 0E43           00451     movlw       'C'
0002C2 EC?? F???      00452     CALL        BYTE_TX 
0002C6 0E44           00453     movlw       'D'
0002C8 EC?? F???      00454     CALL        BYTE_TX
0002CC 0E20           00455     movlw       ' '
0002CE EC?? F???      00456     CALL        BYTE_TX
0002D2 0E54           00457     movlw       'T'
0002D4 EC?? F???      00458     CALL        BYTE_TX
0002D8 0E65           00459     movlw       'e'
0002DA EC?? F???      00460     CALL        BYTE_TX
MPASM 5.87                      COMPLETE.ASM   6-24-2020  7:08:30         PAGE 10


LOC  OBJECT CODE     LINE SOURCE TEXT
  VALUE

0002DE 0E73           00461     movlw       's'
0002E0 EC?? F???      00462     CALL        BYTE_TX 
0002E4 0E74           00463     movlw       't'
0002E6 EC?? F???      00464     CALL        BYTE_TX 
0002EA EC?? F???      00465     CALL        MES_RET
0002EE 0012           00466     RETURN
0002F0                00467 Line:
0002F0 0E10           00468     MOVLW       0x10
0002F2 6E26           00469     MOVWF       Lcnt
0002F4                00470 Lcount
0002F4 4E26           00471     DCFSNZ      Lcnt
0002F6 0012           00472     RETURN
0002F8 0E2D           00473     MOVLW       '-'
0002FA EC?? F???      00474     CALL        BYTE_TX
0002FE EF?? F???      00475     GOTO        Lcount
000302                00476 MES_RET:
000302 0E0D           00477     MOVLW       '\r'
000304 EC?? F???      00478     CALL        BYTE_TX
000308 0E0A           00479     MOVLW       '\n'
00030A EC?? F???      00480     CALL        BYTE_TX
00030E 0012           00481     RETURN
                      00482 ;;;;;;;;;;;;;;;;;;;;;;;;;;;;;;;;;;;;;;;;;;;;;;;;;;;;;;;;;;;;;;;;;;;;;;;;;;;;;;;;
                      00483 ;ADC Subroutines
                      00484 ;;;;;;;;;;;;;;;;;;;;;;;;;;;;;;;;;;;;;;;;;;;;;;;;;;;;;;;;;;;;;;;;;;;;;;;;;;;;;;;;   
000310                00485 ADC_FUNC:
000310 6A09           00486    clrf         Count
000312 0E40           00487    MOVLW        .64
000314 6E09           00488    MOVWF        Count
000316                00489 Sample_Buf
                      00490     ;Sample and return the sum 
000316 82C2           00491    BSF          ADCON0,GO
000318 B2C2           00492    BTFSC        ADCON0,GO
00031A EF?? F???      00493    GOTO         $-2
00031E CFC3 F00A      00494    MOVFF        ADRESL,NumL
000322 CFC4 F00B      00495    MOVFF        ADRESH,NumH
000326                00496 Average
                      00497     ;Moves value from STORED to STORE_OLD without effecting STORED
000326 0EFF           00498    MOVLW        0xFF
000328 140C           00499    ANDWF        STORED,0
00032A 6E0D           00500    MOVWF        STORE_OLD
00032C 90D8           00501    BCF          STATUS,C        ;Clear the carry flag
                      00502     ;Shift is the same divide
00032E 320D           00503    RRCF         STORE_OLD,1     ;Divide by 2
000330 90D8           00504    BCF          STATUS,C
000332 300D           00505    RRCF         STORE_OLD,0     ;Divide by 2 again
000334 5E0C           00506    SUBWF        STORED,1        ;STORE_OLD/4 - STORED
                      00507     ;
000336 90D8           00508    BCF          STATUS,C        ;Clear the carry flag
000338 320B           00509    RRCF         NumH,1
00033A 90D8           00510    BCF          STATUS,C
00033C 300B           00511    RRCF         NumH,0
                      00512     ;
00033E 260C           00513    ADDWF        STORED,1
MPASM 5.87                      COMPLETE.ASM   6-24-2020  7:08:30         PAGE 11


LOC  OBJECT CODE     LINE SOURCE TEXT
  VALUE

000340 90D8           00514    BCF          STATUS,C
000342 2E09           00515    DECFSZ       Count
000344 EF?? F???      00516    goto         Sample_Buf
000348 C00C FF58      00517    MOVFF        STORED,CCPR4L
00034C 0012           00518    RETURN
                      00519    
Warning[207]: Found label after column 1. (ADC_FUNC_1)
00034E                00520    ADC_FUNC_1:
00034E 6A09           00521    clrf         Count
000350 0E40           00522    MOVLW        .64
000352 6E09           00523    MOVWF        Count
000354                00524 Sample_Buf_1
                      00525     ;Sample and return the sum 
000354 82C2           00526    BSF          ADCON0,GO
000356 B2C2           00527    BTFSC        ADCON0,GO
000358 EF?? F???      00528    GOTO         $-2
00035C CFC3 F00B      00529    MOVFF        ADRESL,NumH
000360                00530 Average_1
                      00531     ;Moves value from STORED to STORE_OLD without effecting STORED
000360 0EFF           00532    MOVLW        0xFF
000362 140C           00533    ANDWF        STORED,0
000364 6E0D           00534    MOVWF        STORE_OLD
000366 90D8           00535    BCF          STATUS,C        ;Clear the carry flag
                      00536     ;Shift is the same divide
000368 320D           00537    RRCF         STORE_OLD,1     ;Divide by 2
00036A 90D8           00538    BCF          STATUS,C
00036C 300D           00539    RRCF         STORE_OLD,0     ;Divide by 2 again
00036E 5E0C           00540    SUBWF        STORED,1        ;STORE_OLD/4 - STORED
                      00541     ;
000370 90D8           00542    BCF          STATUS,C        ;Clear the carry flag
000372 320B           00543    RRCF         NumH,1
000374 90D8           00544    BCF          STATUS,C
000376 300B           00545    RRCF         NumH,0
                      00546     ;
000378 260C           00547    ADDWF        STORED,1
00037A 90D8           00548    BCF          STATUS,C
00037C 2E09           00549    DECFSZ       Count
00037E EF?? F???      00550    goto         Sample_Buf_1
000382 0012           00551    RETURN
                      00552    
000384                00553 REG_PRINT:
000384 0E31           00554     movlw   '1'
000386 AE0C           00555     BTFSS   STORED,7
000388 0E30           00556     movlw   '0'
00038A EC?? F???      00557     CALL    BYTE_TX
00038E 0E31           00558     movlw   '1'
000390 AC0C           00559     BTFSS   STORED,6
000392 0E30           00560     movlw   '0'
000394 EC?? F???      00561     CALL    BYTE_TX
000398 0E31           00562     movlw   '1'
00039A AA0C           00563     BTFSS   STORED,5
00039C 0E30           00564     movlw   '0'
00039E EC?? F???      00565     CALL    BYTE_TX
MPASM 5.87                      COMPLETE.ASM   6-24-2020  7:08:30         PAGE 12


LOC  OBJECT CODE     LINE SOURCE TEXT
  VALUE

0003A2 0E31           00566     movlw   '1'
0003A4 A80C           00567     BTFSS   STORED,4
0003A6 0E30           00568     movlw   '0'
0003A8 EC?? F???      00569     CALL    BYTE_TX
0003AC 0E31           00570     movlw   '1'
0003AE A60C           00571     BTFSS   STORED,3
0003B0 0E30           00572     movlw   '0'
0003B2 EC?? F???      00573     CALL    BYTE_TX
0003B6 0E31           00574     movlw   '1'
0003B8 A40C           00575     BTFSS   STORED,2
0003BA 0E30           00576     movlw   '0'
0003BC EC?? F???      00577     CALL    BYTE_TX
0003C0 0E31           00578     movlw   '1'
0003C2 A20C           00579     BTFSS   STORED,1
0003C4 0E30           00580     movlw   '0'
0003C6 EC?? F???      00581     CALL    BYTE_TX
0003CA 0E31           00582     movlw   '1'
0003CC A00C           00583     BTFSS   STORED,0
0003CE 0E30           00584     movlw   '0'
0003D0 EC?? F???      00585     CALL    BYTE_TX
0003D4 0E0D           00586     movlw   '\r'
0003D6 EC?? F???      00587     CALL    BYTE_TX
0003DA 0E0A           00588     movlw   '\n'
0003DC EC?? F???      00589     CALL    BYTE_TX
0003E0 0012           00590     Return
0003E2                00591 DerivativeADC:          ;(Y2-Y1)/Delay
0003E2 EC?? F???      00592     CALL        ADC_FUNC        ;Call the ADC Module
0003E6 C00C FFE8      00593     MOVFF       STORED,WREG
0003EA EC?? F???      00594     CALL        BIN_TO_ASCII
0003EE C023 FFE8      00595     MOVFF       BRH,WREG
0003F2 EC?? F???      00596     CALL        BYTE_TX
0003F6 C021 FFE8      00597     MOVFF       RMDM,WREG
0003FA EC?? F???      00598     CALL        BYTE_TX
0003FE C022 FFE8      00599     MOVFF       RMDL,WREG
000402 EC?? F???      00600     CALL        BYTE_TX
000406 EC?? F???      00601     CALL        MES_RET
00040A C00C FFE8      00602     MOVFF       STORED,WREG     ;Move the value from STORED to WREG
00040E 0F02           00603     ADDLW       .2
000410 6E28           00604     MOVWF       Y1
000412 EC?? F???      00605     CALL        Derivative_DELAY ;Call the delay
000416 EC?? F???      00606     CALL        ADC_FUNC        ;CALL the ADC 
00041A C00C FFE8      00607     MOVFF       STORED,WREG
00041E EC?? F???      00608     CALL        BIN_TO_ASCII
000422 C023 FFE8      00609     MOVFF       BRH,WREG
000426 EC?? F???      00610     CALL        BYTE_TX
00042A C021 FFE8      00611     MOVFF       RMDM,WREG
00042E EC?? F???      00612     CALL        BYTE_TX
000432 C022 FFE8      00613     MOVFF       RMDL,WREG
000436 EC?? F???      00614     CALL        BYTE_TX
00043A EC?? F???      00615     CALL        MES_RET
00043E C00C FFE8      00616     MOVFF       STORED,WREG     ;Move that vlaue to WREG
000442 6028           00617     CPFSLT      Y1
000444 9880           00618     BCF         PORTA,4
MPASM 5.87                      COMPLETE.ASM   6-24-2020  7:08:30         PAGE 13


LOC  OBJECT CODE     LINE SOURCE TEXT
  VALUE

000446 6428           00619     CPFSGT      Y1
000448 8880           00620     BSF         PORTA,4
00044A 0012           00621     RETURN  
                      00622 ;;;;;;;;;;;;;;;;;;;;;;;;;;;;;;;;;;;;;;;;;;;;;;;;;;;;;;;;;;;;;;;;;;;;;;;;;;;;;;;;
                      00623 ;I2C Subroutines
                      00624 ;;;;;;;;;;;;;;;;;;;;;;;;;;;;;;;;;;;;;;;;;;;;;;;;;;;;;;;;;;;;;;;;;;;;;;;;;;;;;;;;
00044C                00625 EEPROM_WRITE_EX:
00044C 9EF2           00626     BCF     INTCON,GIE
00044E 80C5           00627     BSF     SSP1CON2, SEN            
000450 EC?? F???      00628     CALL    WAIT_FUNC                
000454 0EA0           00629     MOVLW   0xA0                    
000456 6EC9           00630     MOVWF   SSP1BUF     
                      00631 
000458 EC?? F???      00632     CALL    WAIT_FUNC                    
00045C BCC5           00633     BTFSC   SSP1CON2, ACKSTAT        
00045E EF?? F???      00634     GOTO    EEPROM_WRITE_EX         
                      00635    
000462 C01A FFC9      00636     MOVFF   ADDRESS,SSP1BUF        
000466 EC?? F???      00637     CALL    WAIT_FUNC                  
00046A BCC5           00638     BTFSC   SSP1CON2, ACKSTAT       
00046C EF?? F???      00639     GOTO    FAILED
                      00640    
                      00641     
000470 C02F FFC9      00642     MOVFF   I2C_DATA,SSP1BUF        
000474 EC?? F???      00643     CALL    WAIT_FUNC                  
000478 BCC5           00644     BTFSC   SSP1CON2, ACKSTAT       
00047A EF?? F???      00645     GOTO    FAILED          
                      00646 
00047E 84C5           00647     BSF     SSP1CON2, PEN           
000480 EC?? F???      00648     CALL    WAIT_FUNC
000484 8EF2           00649     BSF     INTCON,GIE
000486 0012           00650     RETURN
                      00651     
000488                00652 EEPROM_READ_EX:
000488 9EF2           00653     BCF     INTCON,GIE
00048A 80C5           00654     BSF     SSP1CON2, SEN            
00048C EC?? F???      00655     CALL    WAIT_FUNC                
000490 0EA0           00656     MOVLW   0xA0                    
000492 6EC9           00657     MOVWF   SSP1BUF     
                      00658 
000494 EC?? F???      00659     CALL    WAIT_FUNC                    
000498 BCC5           00660     BTFSC   SSP1CON2, ACKSTAT        
00049A EF?? F???      00661     GOTO    EEPROM_READ_EX          
                      00662     
                      00663     
                      00664     
00049E C01A FFC9      00665     MOVFF   ADDRESS,SSP1BUF        
0004A2 EC?? F???      00666     CALL    WAIT_FUNC
0004A6 BCC5           00667     BTFSC   SSP1CON2, ACKSTAT       
0004A8 EF?? F???      00668     GOTO    FAILED
                      00669     
                      00670     
                      00671     
MPASM 5.87                      COMPLETE.ASM   6-24-2020  7:08:30         PAGE 14


LOC  OBJECT CODE     LINE SOURCE TEXT
  VALUE

0004AC 82C5           00672     BSF     SSP1CON2,RSEN            
0004AE EC?? F???      00673     CALL    WAIT_FUNC                
0004B2 0EA1           00674     MOVLW   0xA1            
0004B4 6EC9           00675     MOVWF   SSP1BUF     
                      00676     
                      00677     
                      00678     
0004B6 EC?? F???      00679     CALL    WAIT_FUNC                    
0004BA BCC5           00680     BTFSC   SSP1CON2, ACKSTAT        
0004BC EF?? F???      00681     GOTO    EEPROM_READ_EX
                      00682     
0004C0 86C5           00683     BSF     SSP1CON2,RCEN
0004C2 EC?? F???      00684     CALL    WAIT_FUNC
                      00685     
                      00686     
0004C6 6A80           00687     CLRF    PORTA
0004C8 CFC9 F02F      00688     MOVFF   SSP1BUF,I2C_DATA
0004CC 8AC5           00689     BSF     SSP1CON2,ACKDT
0004CE 88C5           00690     BSF     SSP1CON2,ACKEN
0004D0 EC?? F???      00691     CALL    WAIT_FUNC
0004D4 84C5           00692     BSF     SSP1CON2, PEN
0004D6 EC?? F???      00693     CALL    WAIT_FUNC
0004DA 8EF2           00694     BSF     INTCON,GIE
0004DC 0012           00695     RETURN
                      00696     
0004DE                00697 WAIT_FUNC:
0004DE A69E           00698    BTFSS        PIR1,SSP1IF
0004E0 D???           00699    BRA          $-2                 
0004E2 969E           00700    BCF          PIR1,SSP1IF
0004E4 0012           00701    RETURN
                      00702    
0004E6                00703 FAILED:
0004E6 84C5           00704     BSF         SSP1CON2, PEN
0004E8 EF?? F???      00705     GOTO        Main                        
0004EC 0012           00706     RETURN      
                      00707     
                      00708     
0004EE                00709 LCD_Write:
0004EE 9EF2           00710    BCF          INTCON,GIE
0004F0 80C5           00711    BSF          SSP1CON2, SEN ;Set the SEN bit of  SSP1CON2 to start transmission     
0004F2 EC?? F???      00712    CALL         WAIT_FUNC     ;This function checks ans clears the SSP1IF                            
                      00713    
0004F6 0E4E           00714    MOVLW        0x4E          ;Address of IO module (Write)
0004F8 6EC9           00715    MOVWF        SSP1BUF 
                      00716    
0004FA EC?? F???      00717    CALL         WAIT_FUNC     ;This function checks ans clears the SSP1IF                
0004FE BCC5           00718    BTFSC        SSP1CON2, ACKSTAT ;Testing for Ack from slave        
000500 EF?? F???      00719    GOTO         LCD_Write     ;If no ACK then repeats above steps           
                      00720 
000504 C017 FFC9      00721    MOVFF        NIB1,SSP1BUF    ;Moves adress where to write to SSP1BUF  
000508 EC?? F???      00722    CALL         WAIT_FUNC    ;This function checks ans clears the SSP1IF               
00050C BCC5           00723    BTFSC        SSP1CON2, ACKSTAT ;Testing for Ack from slave               
00050E EF?? F???      00724    GOTO         FAILED
MPASM 5.87                      COMPLETE.ASM   6-24-2020  7:08:30         PAGE 15


LOC  OBJECT CODE     LINE SOURCE TEXT
  VALUE

                      00725 
000512 84C5           00726    BSF          SSP1CON2, PEN       
000514 EC?? F???      00727    CALL         WAIT_FUNC
000518 8EF2           00728    BSF          INTCON,GIE      ;Enables global interupts
00051A 68E8           00729    SETF         WREG                
00051C 2EE8           00730    DECFSZ       WREG                
00051E D???           00731    BRA          $-2
000520 0012           00732    RETURN
                      00733 
                      00734 
                      00735  
000522                00736 LCD_PRINT:
                      00737     ;Only the upper nibble is sent
000522 6E18           00738     MOVWF       NIB2    ;NIB1 = Upper nibble
000524 6E19           00739     MOVWF       NIB3
                      00740     ;In order to send data to the LCD only 4 bits may be sent at a time
                      00741     ;thus we need to send 0xXD where X is the nibble need to send
                      00742     ;
                      00743     ;Upper Nibble
000526 0EF0           00744     MOVLW       0xF0        ; This function AND NIB2 with '11110000'
000528 1618           00745     ANDWF       NIB2,1,0    ; thus we obtain 'xxxx0000'
00052A 0E0D           00746     MOVLW       0x0D        ; This function or NIB2 with 0x0D
00052C 1218           00747     IORWF       NIB2,1,0    ; thus we obation 0xXD
                      00748     ;Lower Nibble
00052E 3A19           00749     SWAPF       NIB3,1,0    ; This function swaps the nibbles of REG F 
000530 0EF0           00750     MOVLW       0xF0        ; This function AND NIB2 with '11110000'
000532 1619           00751     ANDWF       NIB3,1,0    ; thus we obtain 'xxxx0000'
000534 0E0D           00752     MOVLW       0x0D        ; This function or NIB2 with 0x0D
000536 1219           00753     IORWF       NIB3,1,0    ; thus we obation 0xXD
                      00754     
000538 EC?? F???      00755     CALL        DELAY_4
00053C 0E49           00756     MOVLW       0x49
00053E 6E17           00757     MOVWF       NIB1
000540 EC?? F???      00758     CALL        LCD_Write
000544 C018 F017      00759     MOVFF       NIB2,NIB1
000548 EC?? F???      00760     CALL        LCD_Write
00054C 0E49           00761     MOVLW       0x49
00054E 6E17           00762     MOVWF       NIB1
000550 EC?? F???      00763     CALL        LCD_Write
                      00764     
000554 EC?? F???      00765     CALL        DELAY_4
000558 0E89           00766     MOVLW       0x89
00055A 6E17           00767     MOVWF       NIB1
00055C EC?? F???      00768     CALL        LCD_Write
000560 C019 F017      00769     MOVFF       NIB3,NIB1
000564 EC?? F???      00770     CALL        LCD_Write
000568 0E89           00771     MOVLW       0x89
00056A 6E17           00772     MOVWF       NIB1
00056C EC?? F???      00773     CALL        LCD_Write
                      00774     
000570 EC?? F???      00775     CALL        DELAY_4
000574 0012           00776     RETURN
                      00777         
MPASM 5.87                      COMPLETE.ASM   6-24-2020  7:08:30         PAGE 16


LOC  OBJECT CODE     LINE SOURCE TEXT
  VALUE

                      00778 
                      00779     
000576                00780 LCD_INT:
000576 EC?? F???      00781     CALL        DELAY_1
00057A EC?? F???      00782     CALL        DELAY_1
00057E EC?? F???      00783     CALL        DELAY_1 ; 3xDelay_1 = 500ms
                      00784     
000582 0E30           00785     MOVLW       0x30
000584 6E17           00786     MOVWF       NIB1
000586 EC?? F???      00787     CALL        LCD_Write
00058A 0E34           00788     MOVLW       0x34
00058C 6E17           00789     MOVWF       NIB1
00058E EC?? F???      00790     CALL        LCD_Write
000592 0E30           00791     MOVLW       0x30
000594 6E17           00792     MOVWF       NIB1
000596 EC?? F???      00793     CALL        LCD_Write
                      00794     
00059A EC?? F???      00795     CALL        DELAY_2 ; Delay_2 = 5ms
                      00796     
00059E 0E30           00797     MOVLW       0x30
0005A0 6E17           00798     MOVWF       NIB1
0005A2 EC?? F???      00799     CALL        LCD_Write
0005A6 0E34           00800     MOVLW       0x34
0005A8 6E17           00801     MOVWF       NIB1
0005AA EC?? F???      00802     CALL        LCD_Write
0005AE 0E30           00803     MOVLW       0x30
0005B0 6E17           00804     MOVWF       NIB1
0005B2 EC?? F???      00805     CALL        LCD_Write
                      00806     
0005B6 EC?? F???      00807     CALL        DELAY_2 ; Delay_2 = 5ms
                      00808     
0005BA 0E30           00809     MOVLW       0x30
0005BC 6E17           00810     MOVWF       NIB1
0005BE EC?? F???      00811     CALL        LCD_Write
0005C2 0E34           00812     MOVLW       0x34
0005C4 6E17           00813     MOVWF       NIB1
0005C6 EC?? F???      00814     CALL        LCD_Write
0005CA 0E30           00815     MOVLW       0x30
0005CC 6E17           00816     MOVWF       NIB1
0005CE EC?? F???      00817     CALL        LCD_Write
                      00818     
0005D2 EC?? F???      00819     CALL        DELAY_3 ; Delay_3 = 1ms
                      00820     
0005D6 0E20           00821     MOVLW       0x20
0005D8 6E17           00822     MOVWF       NIB1
0005DA EC?? F???      00823     CALL        LCD_Write
0005DE 0E24           00824     MOVLW       0x24
0005E0 6E17           00825     MOVWF       NIB1
0005E2 EC?? F???      00826     CALL        LCD_Write
0005E6 0E20           00827     MOVLW       0x20
0005E8 6E17           00828     MOVWF       NIB1
0005EA EC?? F???      00829     CALL        LCD_Write
                      00830     
MPASM 5.87                      COMPLETE.ASM   6-24-2020  7:08:30         PAGE 17


LOC  OBJECT CODE     LINE SOURCE TEXT
  VALUE

0005EE EC?? F???      00831     CALL        DELAY_4 ; Delay_4 = 70us
                      00832     
0005F2 0E20           00833     MOVLW       0x20
0005F4 6E17           00834     MOVWF       NIB1
0005F6 EC?? F???      00835     CALL        LCD_Write
0005FA 0E24           00836     MOVLW       0x24
0005FC 6E17           00837     MOVWF       NIB1
0005FE EC?? F???      00838     CALL        LCD_Write
000602 0E20           00839     MOVLW       0x20
000604 6E17           00840     MOVWF       NIB1
000606 EC?? F???      00841     CALL        LCD_Write
                      00842     
00060A EC?? F???      00843     CALL        DELAY_4 ; Delay_4 = 70us
                      00844     
00060E 0E80           00845     MOVLW       0x80
000610 6E17           00846     MOVWF       NIB1
000612 EC?? F???      00847     CALL        LCD_Write
000616 0E84           00848     MOVLW       0x84
000618 6E17           00849     MOVWF       NIB1
00061A EC?? F???      00850     CALL        LCD_Write
00061E 0E80           00851     MOVLW       0x80
000620 6E17           00852     MOVWF       NIB1
000622 EC?? F???      00853     CALL        LCD_Write
                      00854     
000626 EC?? F???      00855     CALL        DELAY_4 ; Delay_4 = 70us
                      00856     
00062A 0E00           00857     MOVLW       0x00
00062C 6E17           00858     MOVWF       NIB1
00062E EC?? F???      00859     CALL        LCD_Write
000632 0E04           00860     MOVLW       0x04
000634 6E17           00861     MOVWF       NIB1
000636 EC?? F???      00862     CALL        LCD_Write
00063A 0E00           00863     MOVLW       0x00
00063C 6E17           00864     MOVWF       NIB1
00063E EC?? F???      00865     CALL        LCD_Write
                      00866     
000642 EC?? F???      00867     CALL        DELAY_4 ; Delay_4 = 70us
                      00868     
000646 0EC0           00869     MOVLW       0xC0
000648 6E17           00870     MOVWF       NIB1
00064A EC?? F???      00871     CALL        LCD_Write
00064E 0EC4           00872     MOVLW       0xC4
000650 6E17           00873     MOVWF       NIB1
000652 EC?? F???      00874     CALL        LCD_Write
000656 0EC0           00875     MOVLW       0xC0
000658 6E17           00876     MOVWF       NIB1
00065A EC?? F???      00877     CALL        LCD_Write
                      00878     
00065E EC?? F???      00879     CALL        DELAY_4 ; Delay_4 = 70us
                      00880     
000662 0E00           00881     MOVLW       0x00
000664 6E17           00882     MOVWF       NIB1
000666 EC?? F???      00883     CALL        LCD_Write
MPASM 5.87                      COMPLETE.ASM   6-24-2020  7:08:30         PAGE 18


LOC  OBJECT CODE     LINE SOURCE TEXT
  VALUE

00066A 0E04           00884     MOVLW       0x04
00066C 6E17           00885     MOVWF       NIB1
00066E EC?? F???      00886     CALL        LCD_Write
000672 0E00           00887     MOVLW       0x00
000674 6E17           00888     MOVWF       NIB1
000676 EC?? F???      00889     CALL        LCD_Write
                      00890     
00067A EC?? F???      00891     CALL        DELAY_4 ; Delay_4 = 70us
                      00892     
00067E 0E10           00893     MOVLW       0x10
000680 6E17           00894     MOVWF       NIB1
000682 EC?? F???      00895     CALL        LCD_Write
000686 0E14           00896     MOVLW       0x14
000688 6E17           00897     MOVWF       NIB1
00068A EC?? F???      00898     CALL        LCD_Write
00068E 0E10           00899     MOVLW       0x10
000690 6E17           00900     MOVWF       NIB1
000692 EC?? F???      00901     CALL        LCD_Write
                      00902     
000696 EC?? F???      00903     CALL        DELAY_4 ; Delay_4 = 70us
00069A EC?? F???      00904     CALL        LCD_CLEAR
00069E EC?? F???      00905     CALL        Cursor00
0006A2 0E49           00906     MOVLW       'I'
0006A4 EC?? F???      00907     CALL        LCD_PRINT
0006A8 EC?? F???      00908     CALL        DELAY_1
0006AC 0E6E           00909     MOVLW       'n'
0006AE EC?? F???      00910     CALL        LCD_PRINT
0006B2 EC?? F???      00911     CALL        DELAY_1
0006B6 0E69           00912     MOVLW       'i'
0006B8 EC?? F???      00913     CALL        LCD_PRINT
0006BC EC?? F???      00914     CALL        DELAY_1
0006C0 0E74           00915     MOVLW       't'
0006C2 EC?? F???      00916     CALL        LCD_PRINT
0006C6 EC?? F???      00917     CALL        DELAY_1
0006CA 0E69           00918     MOVLW       'i'
0006CC EC?? F???      00919     CALL        LCD_PRINT
0006D0 EC?? F???      00920     CALL        DELAY_1
0006D4 0E61           00921     MOVLW       'a'
0006D6 EC?? F???      00922     CALL        LCD_PRINT
0006DA EC?? F???      00923     CALL        DELAY_1
0006DE 0E6C           00924      MOVLW      'l'
0006E0 EC?? F???      00925     CALL        LCD_PRINT
0006E4 EC?? F???      00926     CALL        DELAY_1
0006E8 0E69           00927     MOVLW       'i'
0006EA EC?? F???      00928     CALL        LCD_PRINT
0006EE EC?? F???      00929     CALL        DELAY_1
0006F2 0E7A           00930     MOVLW       'z'
0006F4 EC?? F???      00931     CALL        LCD_PRINT
0006F8 EC?? F???      00932      CALL       DELAY_1
0006FC 0E65           00933     MOVLW       'e'
0006FE EC?? F???      00934     CALL        LCD_PRINT
000702 EC?? F???      00935     CALL        DELAY_1
000706 0E64           00936     MOVLW       'd'
MPASM 5.87                      COMPLETE.ASM   6-24-2020  7:08:30         PAGE 19


LOC  OBJECT CODE     LINE SOURCE TEXT
  VALUE

000708 EC?? F???      00937     CALL        LCD_PRINT
00070C EC?? F???      00938     CALL        DELAY_1
000710 EC?? F???      00939     CALL        LCD_CLEAR
000714 0012           00940     RETURN
000716                00941 LCD_CLEAR:
000716 EC?? F???      00942     CALL        DELAY_4
00071A 0E08           00943     MOVLW       0x08
00071C 6E17           00944     MOVWF       NIB1
00071E EC?? F???      00945     CALL        LCD_Write
000722 0E0C           00946     MOVLW       0x0C
000724 6E17           00947     MOVWF       NIB1
000726 EC?? F???      00948     CALL        LCD_Write
00072A 0E08           00949     MOVLW       0x08
00072C 6E17           00950     MOVWF       NIB1
00072E EC?? F???      00951     CALL        LCD_Write
                      00952     
000732 EC?? F???      00953     CALL        DELAY_4
000736 0E18           00954     MOVLW       0x18
000738 6E17           00955     MOVWF       NIB1
00073A EC?? F???      00956     CALL        LCD_Write
00073E 0E1C           00957     MOVLW       0x1C
000740 6E17           00958     MOVWF       NIB1
000742 EC?? F???      00959     CALL        LCD_Write
000746 0E18           00960     MOVLW       0x18
000748 6E17           00961     MOVWF       NIB1
00074A EC?? F???      00962     CALL        LCD_Write
                      00963     
00074E EC?? F???      00964     CALL        DELAY_4
000752 0012           00965     RETURN
                      00966     
000754                00967 LCD_CURSOR:
000754 EC?? F???      00968     CALL        DELAY_4
000758 0E08           00969     MOVLW       0x08
00075A 6E17           00970     MOVWF       NIB1
00075C EC?? F???      00971     CALL        LCD_Write
000760 0E0C           00972     MOVLW       0x0C
000762 6E17           00973     MOVWF       NIB1
000764 EC?? F???      00974     CALL        LCD_Write
000768 0E08           00975     MOVLW       0x08
00076A 6E17           00976     MOVWF       NIB1
00076C EC?? F???      00977     CALL        LCD_Write
                      00978     
000770 EC?? F???      00979     CALL        DELAY_4
000774 0EE8           00980     MOVLW       0xE8
000776 6E17           00981     MOVWF       NIB1
000778 EC?? F???      00982     CALL        LCD_Write
00077C 0EEC           00983     MOVLW       0xEC
00077E 6E17           00984     MOVWF       NIB1
000780 EC?? F???      00985     CALL        LCD_Write
000784 0EE8           00986     MOVLW       0xE8
000786 6E17           00987     MOVWF       NIB1
000788 EC?? F???      00988     CALL        LCD_Write
                      00989     
MPASM 5.87                      COMPLETE.ASM   6-24-2020  7:08:30         PAGE 20


LOC  OBJECT CODE     LINE SOURCE TEXT
  VALUE

00078C EC?? F???      00990     CALL        DELAY_4
000790 0012           00991     RETURN
000792                00992 LCD_NoCURSOR:
000792 EC?? F???      00993     CALL        DELAY_4
000796 0E08           00994     MOVLW       0x08
000798 6E17           00995     MOVWF       NIB1
00079A EC?? F???      00996     CALL        LCD_Write
00079E 0E0C           00997     MOVLW       0x0C
0007A0 6E17           00998     MOVWF       NIB1
0007A2 EC?? F???      00999     CALL        LCD_Write
0007A6 0E08           01000     MOVLW       0x08
0007A8 6E17           01001     MOVWF       NIB1
0007AA EC?? F???      01002     CALL        LCD_Write
                      01003     
0007AE EC?? F???      01004     CALL        DELAY_4
0007B2 0EC8           01005     MOVLW       0xC8
0007B4 6E17           01006     MOVWF       NIB1
0007B6 EC?? F???      01007     CALL        LCD_Write
0007BA 0ECC           01008     MOVLW       0xCC
0007BC 6E17           01009     MOVWF       NIB1
0007BE EC?? F???      01010     CALL        LCD_Write
0007C2 0EC8           01011     MOVLW       0xC8
0007C4 6E17           01012     MOVWF       NIB1
0007C6 EC?? F???      01013     CALL        LCD_Write
                      01014     
0007CA EC?? F???      01015     CALL        DELAY_4
0007CE 0012           01016     RETURN
0007D0                01017 CURX0:
0007D0 EC?? F???      01018     CALL        DELAY_4
0007D4 0E88           01019     MOVLW       0x88
0007D6 6E17           01020     MOVWF       NIB1
0007D8 EC?? F???      01021     CALL        LCD_Write
0007DC 0E8C           01022     MOVLW       0x8C
0007DE 6E17           01023     MOVWF       NIB1
0007E0 EC?? F???      01024     CALL        LCD_Write
0007E4 0E88           01025     MOVLW       0x88
0007E6 6E17           01026     MOVWF       NIB1
0007E8 EC?? F???      01027     CALL        LCD_Write
0007EC EC?? F???      01028     CALL        DELAY_4
0007F0 0012           01029     RETURN
0007F2                01030 CURX1:
0007F2 EC?? F???      01031     CALL        DELAY_4
0007F6 0EC8           01032     MOVLW       0xC8
0007F8 6E17           01033     MOVWF       NIB1
0007FA EC?? F???      01034     CALL        LCD_Write
0007FE 0ECC           01035     MOVLW       0xCC
000800 6E17           01036     MOVWF       NIB1
000802 EC?? F???      01037     CALL        LCD_Write
000806 0EC8           01038     MOVLW       0xC8
000808 6E17           01039     MOVWF       NIB1
00080A EC?? F???      01040     CALL        LCD_Write
00080E EC?? F???      01041     CALL        DELAY_4
000812 0012           01042     RETURN
MPASM 5.87                      COMPLETE.ASM   6-24-2020  7:08:30         PAGE 21


LOC  OBJECT CODE     LINE SOURCE TEXT
  VALUE

000814                01043 Cursor00:
000814 EC?? F???      01044     CALL        CURX0
                      01045     
000818 0E08           01046     MOVLW       0x08
00081A 6E17           01047     MOVWF       NIB1
00081C EC?? F???      01048     CALL        LCD_Write
000820 0E0C           01049     MOVLW       0x0C
000822 6E17           01050     MOVWF       NIB1
000824 EC?? F???      01051     CALL        LCD_Write
000828 0E08           01052     MOVLW       0x08
00082A 6E17           01053     MOVWF       NIB1
00082C EC?? F???      01054     CALL        LCD_Write
                      01055     
000830 EC?? F???      01056     CALL        DELAY_4
000834 0012           01057     RETURN
000836                01058 Cursor10:
000836 EC?? F???      01059     CALL        CURX0
                      01060     
00083A 0E18           01061     MOVLW       0x18
00083C 6E17           01062     MOVWF       NIB1
00083E EC?? F???      01063     CALL        LCD_Write
000842 0E1C           01064     MOVLW       0x1C
000844 6E17           01065     MOVWF       NIB1
000846 EC?? F???      01066     CALL        LCD_Write
00084A 0E18           01067     MOVLW       0x18
00084C 6E17           01068     MOVWF       NIB1
00084E EC?? F???      01069     CALL        LCD_Write
                      01070     
000852 EC?? F???      01071     CALL        DELAY_4
000856 0012           01072     RETURN
000858                01073 Cursor20:
000858 EC?? F???      01074     CALL        CURX0
                      01075     
00085C 0E28           01076     MOVLW       0x28
00085E 6E17           01077     MOVWF       NIB1
000860 EC?? F???      01078     CALL        LCD_Write
000864 0E2C           01079     MOVLW       0x2C
000866 6E17           01080     MOVWF       NIB1
000868 EC?? F???      01081     CALL        LCD_Write
00086C 0E28           01082     MOVLW       0x28
00086E 6E17           01083     MOVWF       NIB1
000870 EC?? F???      01084     CALL        LCD_Write
                      01085     
000874 EC?? F???      01086     CALL        DELAY_4
000878 0012           01087     RETURN
00087A                01088 Cursor30:
00087A EC?? F???      01089     CALL        CURX0
                      01090     
00087E 0E38           01091     MOVLW       0x38
000880 6E17           01092     MOVWF       NIB1
000882 EC?? F???      01093     CALL        LCD_Write
000886 0E3C           01094     MOVLW       0x3C
000888 6E17           01095     MOVWF       NIB1
MPASM 5.87                      COMPLETE.ASM   6-24-2020  7:08:30         PAGE 22


LOC  OBJECT CODE     LINE SOURCE TEXT
  VALUE

00088A EC?? F???      01096     CALL        LCD_Write
00088E 0E38           01097     MOVLW       0x38
000890 6E17           01098     MOVWF       NIB1
000892 EC?? F???      01099     CALL        LCD_Write
                      01100     
000896 EC?? F???      01101     CALL        DELAY_4
00089A 0012           01102     RETURN
00089C                01103 Cursor40:
00089C EC?? F???      01104     CALL        CURX0
                      01105     
0008A0 0E48           01106     MOVLW       0x48
0008A2 6E17           01107     MOVWF       NIB1
0008A4 EC?? F???      01108     CALL        LCD_Write
0008A8 0E4C           01109     MOVLW       0x4C
0008AA 6E17           01110     MOVWF       NIB1
0008AC EC?? F???      01111     CALL        LCD_Write
0008B0 0E48           01112     MOVLW       0x48
0008B2 6E17           01113     MOVWF       NIB1
0008B4 EC?? F???      01114     CALL        LCD_Write
                      01115     
0008B8 EC?? F???      01116     CALL        DELAY_4
0008BC 0012           01117     RETURN
0008BE                01118 Cursor50:
0008BE EC?? F???      01119     CALL        CURX0
                      01120     
0008C2 0E58           01121     MOVLW       0x58
0008C4 6E17           01122     MOVWF       NIB1
0008C6 EC?? F???      01123     CALL        LCD_Write
0008CA 0E5C           01124     MOVLW       0x5C
0008CC 6E17           01125     MOVWF       NIB1
0008CE EC?? F???      01126     CALL        LCD_Write
0008D2 0E58           01127     MOVLW       0x58
0008D4 6E17           01128     MOVWF       NIB1
0008D6 EC?? F???      01129     CALL        LCD_Write
                      01130     
0008DA EC?? F???      01131     CALL        DELAY_4
0008DE 0012           01132     RETURN
Warning[207]: Found label after column 1. (Cursor60)
0008E0                01133  Cursor60:
0008E0 EC?? F???      01134     CALL        CURX0
                      01135     
0008E4 0E68           01136     MOVLW       0x68
0008E6 6E17           01137     MOVWF       NIB1
0008E8 EC?? F???      01138     CALL        LCD_Write
0008EC 0E6C           01139     MOVLW       0x6C
0008EE 6E17           01140     MOVWF       NIB1
0008F0 EC?? F???      01141     CALL        LCD_Write
0008F4 0E68           01142     MOVLW       0x68
0008F6 6E17           01143     MOVWF       NIB1
0008F8 EC?? F???      01144     CALL        LCD_Write
                      01145     
0008FC EC?? F???      01146     CALL        DELAY_4
000900 0012           01147     RETURN
MPASM 5.87                      COMPLETE.ASM   6-24-2020  7:08:30         PAGE 23


LOC  OBJECT CODE     LINE SOURCE TEXT
  VALUE

000902                01148 Cursor70:
000902 EC?? F???      01149     CALL        CURX0
                      01150     
000906 0E78           01151     MOVLW       0x78
000908 6E17           01152     MOVWF       NIB1
00090A EC?? F???      01153     CALL        LCD_Write
00090E 0E7C           01154     MOVLW       0x7C
000910 6E17           01155     MOVWF       NIB1
000912 EC?? F???      01156     CALL        LCD_Write
000916 0E78           01157     MOVLW       0x78
000918 6E17           01158     MOVWF       NIB1
00091A EC?? F???      01159     CALL        LCD_Write
                      01160     
00091E EC?? F???      01161     CALL        DELAY_4
000922 0012           01162     RETURN
000924                01163 Cursor80:
000924 EC?? F???      01164     CALL        CURX0
                      01165     
000928 0E88           01166     MOVLW       0x88
00092A 6E17           01167     MOVWF       NIB1
00092C EC?? F???      01168     CALL        LCD_Write
000930 0E8C           01169     MOVLW       0x8C
000932 6E17           01170     MOVWF       NIB1
000934 EC?? F???      01171     CALL        LCD_Write
000938 0E88           01172     MOVLW       0x88
00093A 6E17           01173     MOVWF       NIB1
00093C EC?? F???      01174     CALL        LCD_Write
                      01175     
000940 EC?? F???      01176     CALL        DELAY_4
000944 0012           01177     RETURN
000946                01178 Cursor90:
000946 EC?? F???      01179     CALL        CURX0
                      01180     
00094A 0E98           01181     MOVLW       0x98
00094C 6E17           01182     MOVWF       NIB1
00094E EC?? F???      01183     CALL        LCD_Write
000952 0E9C           01184     MOVLW       0x9C
000954 6E17           01185     MOVWF       NIB1
000956 EC?? F???      01186     CALL        LCD_Write
00095A 0E98           01187     MOVLW       0x98
00095C 6E17           01188     MOVWF       NIB1
00095E EC?? F???      01189     CALL        LCD_Write
                      01190     
000962 EC?? F???      01191     CALL        DELAY_4
000966 0012           01192     RETURN
000968                01193 Cursor100:
000968 EC?? F???      01194     CALL        CURX0
                      01195     
00096C 0EA8           01196     MOVLW       0xA8
00096E 6E17           01197     MOVWF       NIB1
000970 EC?? F???      01198     CALL        LCD_Write
000974 0EAC           01199     MOVLW       0xAC
000976 6E17           01200     MOVWF       NIB1
MPASM 5.87                      COMPLETE.ASM   6-24-2020  7:08:30         PAGE 24


LOC  OBJECT CODE     LINE SOURCE TEXT
  VALUE

000978 EC?? F???      01201     CALL        LCD_Write
00097C 0EA8           01202     MOVLW       0xA8
00097E 6E17           01203     MOVWF       NIB1
000980 EC?? F???      01204     CALL        LCD_Write
                      01205     
000984 EC?? F???      01206     CALL        DELAY_4
000988 0012           01207     RETURN
00098A                01208 Cursor110:
00098A EC?? F???      01209     CALL        CURX0
                      01210     
00098E 0EB8           01211     MOVLW       0xB8
000990 6E17           01212     MOVWF       NIB1
000992 EC?? F???      01213     CALL        LCD_Write
000996 0EBC           01214     MOVLW       0xBC
000998 6E17           01215     MOVWF       NIB1
00099A EC?? F???      01216     CALL        LCD_Write
00099E 0EB8           01217     MOVLW       0xB8
0009A0 6E17           01218     MOVWF       NIB1
0009A2 EC?? F???      01219     CALL        LCD_Write
                      01220     
0009A6 EC?? F???      01221     CALL        DELAY_4
0009AA 0012           01222     RETURN
0009AC                01223 Cursor120:
0009AC EC?? F???      01224     CALL        CURX0
                      01225     
0009B0 0EC8           01226     MOVLW       0xC8
0009B2 6E17           01227     MOVWF       NIB1
0009B4 EC?? F???      01228     CALL        LCD_Write
0009B8 0ECC           01229     MOVLW       0xCC
0009BA 6E17           01230     MOVWF       NIB1
0009BC EC?? F???      01231     CALL        LCD_Write
0009C0 0EC8           01232     MOVLW       0xC8
0009C2 6E17           01233     MOVWF       NIB1
0009C4 EC?? F???      01234     CALL        LCD_Write
                      01235     
0009C8 EC?? F???      01236     CALL        DELAY_4
0009CC 0012           01237     RETURN
0009CE                01238 Cursor130:
0009CE EC?? F???      01239     CALL        CURX0
                      01240     
0009D2 0ED8           01241     MOVLW       0xD8
0009D4 6E17           01242     MOVWF       NIB1
0009D6 EC?? F???      01243     CALL        LCD_Write
0009DA 0EDC           01244     MOVLW       0xDC
0009DC 6E17           01245     MOVWF       NIB1
0009DE EC?? F???      01246     CALL        LCD_Write
0009E2 0ED8           01247     MOVLW       0xD8
0009E4 6E17           01248     MOVWF       NIB1
0009E6 EC?? F???      01249     CALL        LCD_Write
                      01250     
0009EA EC?? F???      01251     CALL        DELAY_4
0009EE 0012           01252     RETURN
0009F0                01253 Cursor140:
MPASM 5.87                      COMPLETE.ASM   6-24-2020  7:08:30         PAGE 25


LOC  OBJECT CODE     LINE SOURCE TEXT
  VALUE

0009F0 EC?? F???      01254     CALL        CURX0
                      01255     
0009F4 0EE8           01256     MOVLW       0xE8
0009F6 6E17           01257     MOVWF       NIB1
0009F8 EC?? F???      01258     CALL        LCD_Write
0009FC 0EEC           01259     MOVLW       0xEC
0009FE 6E17           01260     MOVWF       NIB1
000A00 EC?? F???      01261     CALL        LCD_Write
000A04 0EE8           01262     MOVLW       0xE8
000A06 6E17           01263     MOVWF       NIB1
000A08 EC?? F???      01264     CALL        LCD_Write
                      01265     
000A0C EC?? F???      01266     CALL        DELAY_4
000A10 0012           01267     RETURN
000A12                01268 Cursor150:
000A12 EC?? F???      01269     CALL        CURX0
                      01270     
000A16 0EF8           01271     MOVLW       0xF8
000A18 6E17           01272     MOVWF       NIB1
000A1A EC?? F???      01273     CALL        LCD_Write
000A1E 0EFC           01274     MOVLW       0xFC
000A20 6E17           01275     MOVWF       NIB1
000A22 EC?? F???      01276     CALL        LCD_Write
000A26 0EF8           01277     MOVLW       0xF8
000A28 6E17           01278     MOVWF       NIB1
000A2A EC?? F???      01279     CALL        LCD_Write
                      01280     
000A2E EC?? F???      01281     CALL        DELAY_4
000A32 0012           01282     RETURN
000A34                01283 Cursor01:
000A34 EC?? F???      01284     CALL        CURX1
                      01285     
000A38 0E08           01286     MOVLW       0x08
000A3A 6E17           01287     MOVWF       NIB1
000A3C EC?? F???      01288     CALL        LCD_Write
000A40 0E0C           01289     MOVLW       0x0C
000A42 6E17           01290     MOVWF       NIB1
000A44 EC?? F???      01291     CALL        LCD_Write
000A48 0E08           01292     MOVLW       0x08
000A4A 6E17           01293     MOVWF       NIB1
000A4C EC?? F???      01294     CALL        LCD_Write
                      01295     
000A50 EC?? F???      01296     CALL        DELAY_4
000A54 0012           01297     RETURN
000A56                01298 Cursor11:
000A56 EC?? F???      01299     CALL        CURX1
                      01300     
000A5A 0E18           01301     MOVLW       0x18
000A5C 6E17           01302     MOVWF       NIB1
000A5E EC?? F???      01303     CALL        LCD_Write
000A62 0E1C           01304     MOVLW       0x1C
000A64 6E17           01305     MOVWF       NIB1
000A66 EC?? F???      01306     CALL        LCD_Write
MPASM 5.87                      COMPLETE.ASM   6-24-2020  7:08:30         PAGE 26


LOC  OBJECT CODE     LINE SOURCE TEXT
  VALUE

000A6A 0E18           01307     MOVLW       0x18
000A6C 6E17           01308     MOVWF       NIB1
000A6E EC?? F???      01309     CALL        LCD_Write
                      01310     
000A72 EC?? F???      01311     CALL        DELAY_4
000A76 0012           01312     RETURN
000A78                01313 Cursor21:
000A78 EC?? F???      01314     CALL        CURX1
                      01315     
000A7C 0E28           01316     MOVLW       0x28
000A7E 6E17           01317     MOVWF       NIB1
000A80 EC?? F???      01318     CALL        LCD_Write
000A84 0E2C           01319     MOVLW       0x2C
000A86 6E17           01320     MOVWF       NIB1
000A88 EC?? F???      01321     CALL        LCD_Write
000A8C 0E28           01322     MOVLW       0x28
000A8E 6E17           01323     MOVWF       NIB1
000A90 EC?? F???      01324     CALL        LCD_Write
                      01325     
000A94 EC?? F???      01326     CALL        DELAY_4
000A98 0012           01327     RETURN
000A9A                01328 Cursor31:
000A9A EC?? F???      01329     CALL        CURX1
                      01330     
000A9E 0E38           01331     MOVLW       0x38
000AA0 6E17           01332     MOVWF       NIB1
000AA2 EC?? F???      01333     CALL        LCD_Write
000AA6 0E3C           01334     MOVLW       0x3C
000AA8 6E17           01335     MOVWF       NIB1
000AAA EC?? F???      01336     CALL        LCD_Write
000AAE 0E38           01337     MOVLW       0x38
000AB0 6E17           01338     MOVWF       NIB1
000AB2 EC?? F???      01339     CALL        LCD_Write
                      01340     
000AB6 EC?? F???      01341     CALL        DELAY_4
000ABA 0012           01342     RETURN
000ABC                01343 Cursor41:
000ABC EC?? F???      01344     CALL        CURX1
                      01345     
000AC0 0E48           01346     MOVLW       0x48
000AC2 6E17           01347     MOVWF       NIB1
000AC4 EC?? F???      01348     CALL        LCD_Write
000AC8 0E4C           01349     MOVLW       0x4C
000ACA 6E17           01350     MOVWF       NIB1
000ACC EC?? F???      01351     CALL        LCD_Write
000AD0 0E48           01352     MOVLW       0x48
000AD2 6E17           01353     MOVWF       NIB1
000AD4 EC?? F???      01354     CALL        LCD_Write
                      01355     
000AD8 EC?? F???      01356     CALL        DELAY_4
000ADC 0012           01357     RETURN
000ADE                01358 Cursor51:
000ADE EC?? F???      01359     CALL        CURX1
MPASM 5.87                      COMPLETE.ASM   6-24-2020  7:08:30         PAGE 27


LOC  OBJECT CODE     LINE SOURCE TEXT
  VALUE

                      01360     
000AE2 0E58           01361     MOVLW       0x58
000AE4 6E17           01362     MOVWF       NIB1
000AE6 EC?? F???      01363     CALL        LCD_Write
000AEA 0E5C           01364     MOVLW       0x5C
000AEC 6E17           01365     MOVWF       NIB1
000AEE EC?? F???      01366     CALL        LCD_Write
000AF2 0E58           01367     MOVLW       0x58
000AF4 6E17           01368     MOVWF       NIB1
000AF6 EC?? F???      01369     CALL        LCD_Write
                      01370     
000AFA EC?? F???      01371     CALL        DELAY_4
000AFE 0012           01372     RETURN
Warning[207]: Found label after column 1. (Cursor61)
000B00                01373  Cursor61:
000B00 EC?? F???      01374     CALL        CURX1
                      01375     
000B04 0E68           01376     MOVLW       0x68
000B06 6E17           01377     MOVWF       NIB1
000B08 EC?? F???      01378     CALL        LCD_Write
000B0C 0E6C           01379     MOVLW       0x6C
000B0E 6E17           01380     MOVWF       NIB1
000B10 EC?? F???      01381     CALL        LCD_Write
000B14 0E68           01382     MOVLW       0x68
000B16 6E17           01383     MOVWF       NIB1
000B18 EC?? F???      01384     CALL        LCD_Write
                      01385     
000B1C EC?? F???      01386     CALL        DELAY_4
000B20 0012           01387     RETURN
000B22                01388 Cursor71:
000B22 EC?? F???      01389     CALL        CURX1
                      01390     
000B26 0E78           01391     MOVLW       0x78
000B28 6E17           01392     MOVWF       NIB1
000B2A EC?? F???      01393     CALL        LCD_Write
000B2E 0E7C           01394     MOVLW       0x7C
000B30 6E17           01395     MOVWF       NIB1
000B32 EC?? F???      01396     CALL        LCD_Write
000B36 0E78           01397     MOVLW       0x78
000B38 6E17           01398     MOVWF       NIB1
000B3A EC?? F???      01399     CALL        LCD_Write
                      01400     
000B3E EC?? F???      01401     CALL        DELAY_4
000B42 0012           01402     RETURN
000B44                01403 Cursor81:
000B44 EC?? F???      01404     CALL        CURX1
                      01405     
000B48 0E88           01406     MOVLW       0x88
000B4A 6E17           01407     MOVWF       NIB1
000B4C EC?? F???      01408     CALL        LCD_Write
000B50 0E8C           01409     MOVLW       0x8C
000B52 6E17           01410     MOVWF       NIB1
000B54 EC?? F???      01411     CALL        LCD_Write
MPASM 5.87                      COMPLETE.ASM   6-24-2020  7:08:30         PAGE 28


LOC  OBJECT CODE     LINE SOURCE TEXT
  VALUE

000B58 0E88           01412     MOVLW       0x88
000B5A 6E17           01413     MOVWF       NIB1
000B5C EC?? F???      01414     CALL        LCD_Write
                      01415     
000B60 EC?? F???      01416     CALL        DELAY_4
000B64 0012           01417     RETURN
000B66                01418 Cursor91:
000B66 EC?? F???      01419     CALL        CURX1
                      01420     
000B6A 0E98           01421     MOVLW       0x98
000B6C 6E17           01422     MOVWF       NIB1
000B6E EC?? F???      01423     CALL        LCD_Write
000B72 0E9C           01424     MOVLW       0x9C
000B74 6E17           01425     MOVWF       NIB1
000B76 EC?? F???      01426     CALL        LCD_Write
000B7A 0E98           01427     MOVLW       0x98
000B7C 6E17           01428     MOVWF       NIB1
000B7E EC?? F???      01429     CALL        LCD_Write
                      01430     
000B82 EC?? F???      01431     CALL        DELAY_4
000B86 0012           01432     RETURN
000B88                01433 Cursor101:
000B88 EC?? F???      01434     CALL        CURX1
                      01435     
000B8C 0EA8           01436     MOVLW       0xA8
000B8E 6E17           01437     MOVWF       NIB1
000B90 EC?? F???      01438     CALL        LCD_Write
000B94 0EAC           01439     MOVLW       0xAC
000B96 6E17           01440     MOVWF       NIB1
000B98 EC?? F???      01441     CALL        LCD_Write
000B9C 0EA8           01442     MOVLW       0xA8
000B9E 6E17           01443     MOVWF       NIB1
000BA0 EC?? F???      01444     CALL        LCD_Write
                      01445     
000BA4 EC?? F???      01446     CALL        DELAY_4
000BA8 0012           01447     RETURN
000BAA                01448 Cursor111:
000BAA EC?? F???      01449     CALL        CURX1
                      01450     
000BAE 0EB8           01451     MOVLW       0xB8
000BB0 6E17           01452     MOVWF       NIB1
000BB2 EC?? F???      01453     CALL        LCD_Write
000BB6 0EBC           01454     MOVLW       0xBC
000BB8 6E17           01455     MOVWF       NIB1
000BBA EC?? F???      01456     CALL        LCD_Write
000BBE 0EB8           01457     MOVLW       0xB8
000BC0 6E17           01458     MOVWF       NIB1
000BC2 EC?? F???      01459     CALL        LCD_Write
                      01460     
000BC6 EC?? F???      01461     CALL        DELAY_4
000BCA 0012           01462     RETURN
000BCC                01463 Cursor121:
000BCC EC?? F???      01464     CALL        CURX1
MPASM 5.87                      COMPLETE.ASM   6-24-2020  7:08:30         PAGE 29


LOC  OBJECT CODE     LINE SOURCE TEXT
  VALUE

                      01465     
000BD0 0EC8           01466     MOVLW       0xC8
000BD2 6E17           01467     MOVWF       NIB1
000BD4 EC?? F???      01468     CALL        LCD_Write
000BD8 0ECC           01469     MOVLW       0xCC
000BDA 6E17           01470     MOVWF       NIB1
000BDC EC?? F???      01471     CALL        LCD_Write
000BE0 0EC8           01472     MOVLW       0xC8
000BE2 6E17           01473     MOVWF       NIB1
000BE4 EC?? F???      01474     CALL        LCD_Write
                      01475     
000BE8 EC?? F???      01476     CALL        DELAY_4
000BEC 0012           01477     RETURN
000BEE                01478 Cursor131:
000BEE EC?? F???      01479     CALL        CURX1
                      01480     
000BF2 0ED8           01481     MOVLW       0xD8
000BF4 6E17           01482     MOVWF       NIB1
000BF6 EC?? F???      01483     CALL        LCD_Write
000BFA 0EDC           01484     MOVLW       0xDC
000BFC 6E17           01485     MOVWF       NIB1
000BFE EC?? F???      01486     CALL        LCD_Write
000C02 0ED8           01487     MOVLW       0xD8
000C04 6E17           01488     MOVWF       NIB1
000C06 EC?? F???      01489     CALL        LCD_Write
                      01490     
000C0A EC?? F???      01491     CALL        DELAY_4
000C0E 0012           01492     RETURN
000C10                01493 Cursor141:
000C10 EC?? F???      01494     CALL        CURX1
                      01495     
000C14 0EE8           01496     MOVLW       0xE8
000C16 6E17           01497     MOVWF       NIB1
000C18 EC?? F???      01498     CALL        LCD_Write
000C1C 0EEC           01499     MOVLW       0xEC
000C1E 6E17           01500     MOVWF       NIB1
000C20 EC?? F???      01501     CALL        LCD_Write
000C24 0EE8           01502     MOVLW       0xE8
000C26 6E17           01503     MOVWF       NIB1
000C28 EC?? F???      01504     CALL        LCD_Write
                      01505     
000C2C EC?? F???      01506     CALL        DELAY_4
000C30 0012           01507     RETURN
000C32                01508 Cursor151:
000C32 EC?? F???      01509     CALL        CURX1
                      01510     
000C36 0EF8           01511     MOVLW       0xF8
000C38 6E17           01512     MOVWF       NIB1
000C3A EC?? F???      01513     CALL        LCD_Write
000C3E 0EFC           01514     MOVLW       0xFC
000C40 6E17           01515     MOVWF       NIB1
000C42 EC?? F???      01516     CALL        LCD_Write
000C46 0EF8           01517     MOVLW       0xF8
MPASM 5.87                      COMPLETE.ASM   6-24-2020  7:08:30         PAGE 30


LOC  OBJECT CODE     LINE SOURCE TEXT
  VALUE

000C48 6E17           01518     MOVWF       NIB1
000C4A EC?? F???      01519     CALL        LCD_Write
                      01520     
000C4E EC?? F???      01521     CALL        DELAY_4
000C52 0012           01522     RETURN
                      01523 ;;;;;;;;;;;;;;;;;;;;;;;;;;;;;;;;;;;;;;;;;;;;;;;;;;;;;;;;;;;;;;;;;;;;;;;;;;;;;;;;
                      01524 ;Cailibration Subroutines
                      01525 ;;;;;;;;;;;;;;;;;;;;;;;;;;;;;;;;;;;;;;;;;;;;;;;;;;;;;;;;;;;;;;;;;;;;;;;;;;;;;;;;
000C54                01526 Calibration:
000C54 0E05           01527    MOVLW        b'00000101'
000C56 6EC2           01528    MOVWF        ADCON0
000C58 EC?? F???      01529    CALL         RX_DATA
000C5C EC?? F???      01530    CALL         ADC_FUNC
000C60 C00C F014      01531    MOVFF        STORED,BreN
000C64 EC?? F???      01532    CALL         REG_PRINT
000C68 6A0C           01533    CLRF         STORED
000C6A                01534 Inhale_Message
000C6A EC?? F???      01535    CALL         Cursor00
000C6E 0E49           01536    MOVLW        'I'
000C70 EC?? F???      01537    CALL         LCD_PRINT
000C74 0E6E           01538    MOVLW        'n'
000C76 EC?? F???      01539    CALL         LCD_PRINT
000C7A EC?? F???      01540    CALL         RX_DATA
000C7E EC?? F???      01541    CALL         ADC_FUNC
000C82 C00C F016      01542    MOVFF        STORED,BreI
000C86 EC?? F???      01543    CALL         REG_PRINT
000C8A 6A0C           01544    CLRF         STORED
000C8C                01545 Exhale_Message
000C8C EC?? F???      01546    CALL         Cursor00
000C90 0E4F           01547    MOVLW        'O'
000C92 EC?? F???      01548    CALL         LCD_PRINT
000C96 0E75           01549    MOVLW        'u'
000C98 EC?? F???      01550    CALL         LCD_PRINT
000C9C 0E74           01551    MOVLW        't'
000C9E EC?? F???      01552    CALL         LCD_PRINT
000CA2 EC?? F???      01553    CALL         RX_DATA
000CA6 EC?? F???      01554    CALL         ADC_FUNC
000CAA EC?? F???      01555    CALL         REG_PRINT
000CAE C00C F015      01556    MOVFF        STORED,BreO
000CB2 6A0C           01557    CLRF         STORED
000CB4 0012           01558    RETURN
                      01559 ;;;;;;;;;;;;;;;;;;;;;;;;;;;;;;;;;;;;;;;;;;;;;;;;;;;;;;;;;;;;;;;;;;;;;;;;;;;;;;;;
                      01560 ;Breating Rate Subroutines
                      01561 ;;;;;;;;;;;;;;;;;;;;;;;;;;;;;;;;;;;;;;;;;;;;;;;;;;;;;;;;;;;;;;;;;;;;;;;;;;;;;;;;
000CB6                01562 Check
000CB6 EC?? F???      01563    CALL         DerivativeADC
000CBA EC?? F???      01564    CALL         Cursor130
000CBE C02C F027      01565    MOVFF        Timecnt1,Temp
000CC2 90D8           01566    BCF          STATUS,C
000CC4 3227           01567    RRCF         Temp,1
000CC6 90D8           01568    BCF          STATUS,C
000CC8 3027           01569    RRCF         Temp,0
000CCA EC?? F???      01570    CALL         BIN_TO_ASCII
MPASM 5.87                      COMPLETE.ASM   6-24-2020  7:08:30         PAGE 31


LOC  OBJECT CODE     LINE SOURCE TEXT
  VALUE

000CCE C021 FFE8      01571    MOVFF        RMDM,WREG
000CD2 EC?? F???      01572    CALL         LCD_PRINT
000CD6 C022 FFE8      01573    MOVFF        RMDL,WREG
000CDA EC?? F???      01574    CALL         LCD_PRINT
000CDE 0E53           01575    MOVLW        'S'
000CE0 EC?? F???      01576    CALL         LCD_PRINT
000CE4 A880           01577    BTFSS        PORTA,4 ;Check for postive for negative change
000CE6 EF?? F???      01578    GOTO         OUT
000CEA EC?? F???      01579 IN CALL         DELAY_1     ;Call a 171ms delay
000CEE EC?? F???      01580    CALL         Cursor00    ;Sets cursor on LCD to (0,0)
000CF2 0E49           01581    MOVLW        'I'         ;Move 'I' to WREG
000CF4 EC?? F???      01582    CALL         LCD_PRINT   ;Print WREG to LCD
000CF8 0E6E           01583    MOVLW        'n'         ;Move 'n' to WREG
000CFA EC?? F???      01584    CALL         LCD_PRINT   ;Print WREG to LCD
000CFE 0E2E           01585    MOVLW        '.'         ;Move '.' to WREG
000D00 EC?? F???      01586    CALL         LCD_PRINT   ;Print WREG to LCD
000D04 0E20           01587    MOVLW        ' '         ;Move ' ' to WREG       
000D06 EC?? F???      01588    CALL         LCD_PRINT   ;Print WREG to LCD
000D0A EC?? F???      01589    CALL         Moving_Average
000D0E                01590 IN1
000D0E EC?? F???      01591    CALL         Cursor130
000D12 C02C F027      01592    MOVFF        Timecnt1,Temp
000D16 90D8           01593    BCF          STATUS,C
000D18 3227           01594    RRCF         Temp,1
000D1A 90D8           01595    BCF          STATUS,C
000D1C 3027           01596    RRCF         Temp,0
000D1E EC?? F???      01597    CALL         BIN_TO_ASCII
000D22 C021 FFE8      01598    MOVFF        RMDM,WREG
000D26 EC?? F???      01599    CALL         LCD_PRINT
000D2A C022 FFE8      01600    MOVFF        RMDL,WREG
000D2E EC?? F???      01601    CALL         LCD_PRINT
000D32 0E53           01602    MOVLW        'S'
000D34 EC?? F???      01603    CALL         LCD_PRINT
000D38 EC?? F???      01604    CALL         DerivativeADC       ;CAll DerivativeADC
000D3C A880           01605    BTFSS        PORTA,4      ;Check for postive for negative change
000D3E EF?? F???      01606    GOTO         OUT
000D42 EF?? F???      01607    GOTO         IN1
000D46                01608 OUT
000D46 EC?? F???      01609     CALL        DELAY_1     ;Call a 171ms delay
000D4A EC?? F???      01610     CALL        Cursor00    ;Sets cursor on LCD to (0,0)
000D4E 0E4F           01611     MOVLW       'O'         ;Move 'O' to WREG
000D50 EC?? F???      01612     CALL        LCD_PRINT   ;Print WREG to LCD
000D54 0E75           01613     MOVLW       'u'         ;Move 'O' to WREG
000D56 EC?? F???      01614     CALL        LCD_PRINT   ;Print WREG to LCD
000D5A 0E74           01615     MOVLW       't'         ;Move 'O' to WREG
000D5C EC?? F???      01616     CALL        LCD_PRINT   ;Print WREG to LCD
000D60 0E2E           01617     MOVLW       '.'         ;Move 'O' to WREG       
000D62 EC?? F???      01618     CALL        LCD_PRINT   ;Print WREG to LCD
000D66 C01C FFE8      01619     MOVFF       Timecnt,WREG;Move value from Timecnt to WREG
000D6A 621F           01620     CPFSEQ      MINUTE      ;Compare to MINUTE value
000D6C EF?? F???      01621     GOTO        Check       ;Loop back to the top
000D70 EF?? F???      01622     GOTO        Dead_Alarm
                      01623  
MPASM 5.87                      COMPLETE.ASM   6-24-2020  7:08:30         PAGE 32


LOC  OBJECT CODE     LINE SOURCE TEXT
  VALUE

                      01624 
000D74                01625 Moving_Average:                 ;Compute running average and print to LCD
000D74 9EF2           01626    BCF          INTCON,GIE      ;Global Interupts Disabled    
000D76 0EFF           01627    MOVLW        0xFF
000D78 141E           01628    ANDWF        TimeAvg,0
000D7A 6E1D           01629    MOVWF        TimeAvgOld
000D7C 90D8           01630    BCF          STATUS,C        ;Clear the carry flag
                      01631     ;Shift is the same divide
000D7E 321D           01632    RRCF         TimeAvgOld,1    ;Divide by 2
000D80 90D8           01633    BCF          STATUS,C
000D82 301D           01634    RRCF         TimeAvgOld,0    ;Divide by 2 again
000D84 5E1E           01635    SUBWF        TimeAvg,1       ;STORE_OLD/4 - STORED
                      01636     ;
000D86 90D8           01637    BCF          STATUS,C        ;Clear the carry flag
000D88 321C           01638    RRCF         Timecnt,1
000D8A 90D8           01639    BCF          STATUS,C
000D8C 301C           01640    RRCF         Timecnt,0
                      01641     ;
000D8E 261E           01642    ADDWF        TimeAvg,1
000D90 90D8           01643    BCF          STATUS,C
000D92 241E           01644    ADDWF        TimeAvg,0
000D94 90D8           01645    BCF          STATUS,C
                      01646      
000D96 8EF2           01647    BSF          INTCON,GIE      ;Global Interupts Enable
000D98 0E00           01648    MOVLW        0x00
000D9A 6E1C           01649    MOVWF        Timecnt
                      01650    ;MOVFF       TimeAvg,CCPR4L  ;Use the BPM to change the PWM
000D9C EC?? F???      01651    CALL         DELAY_2
000DA0 EC?? F???      01652    CALL         Normal
000DA4 C01E FFE8      01653    MOVFF        TimeAvg,WREG
000DA8 602E           01654    CPFSLT       DIFFHIGH        ;Comapre greater than
000DAA EC?? F???      01655    CALL         DifficultyF
000DAE 642D           01656    CPFSGT       DIFFLOW
000DB0 EC?? F???      01657    CALL         DifficultyL
000DB4                01658 Breathrate:
000DB4 C01F F000      01659     MOVFF       MINUTE,NUME
000DB8 C01E FFE8      01660     MOVFF       TimeAvg,WREG    
000DBC 6A20           01661     CLRF        QU
000DBE                01662 B_1
000DBE 2A20           01663     INCF        QU,F
000DC0 5E00           01664     SUBWF       NUME,F
000DC2 E2??           01665     BC          B_1
000DC4 0620           01666     DECF        QU,F
000DC6 2600           01667     ADDWF       NUME,F
000DC8 C000 F025      01668     MOVFF       NUME,BRL
000DCC C020 F024      01669     MOVFF       QU,BRM
000DD0 6A20           01670     CLRF        QU
000DD2 C024 FFE8      01671     MOVFF       BRM,WREG
000DD6 EC?? F???      01672     CALL        BIN_TO_ASCII
000DDA EC?? F???      01673     CALL        DELAY_1
000DDE EC?? F???      01674     CALL        Cursor41
000DE2 EC?? F???      01675     CALL        DELAY_1
000DE6 C021 FFE8      01676     MOVFF       RMDM,WREG
MPASM 5.87                      COMPLETE.ASM   6-24-2020  7:08:30         PAGE 33


LOC  OBJECT CODE     LINE SOURCE TEXT
  VALUE

000DEA EC?? F???      01677     CALL        LCD_PRINT
000DEE C022 FFE8      01678     MOVFF       RMDL,WREG
000DF2 EC?? F???      01679     CALL        LCD_PRINT
000DF6 C025 FFE8      01680     MOVFF       BRL,WREG
000DFA EC?? F???      01681     CALL        BIN_TO_ASCII
000DFE EC?? F???      01682     Call        Cursor61
000E02 0E2C           01683     MOVLW       ','
000E04 EC?? F???      01684     CALL        LCD_PRINT
000E08 C021 FFE8      01685     MOVFF       RMDM,WREG
000E0C EC?? F???      01686     CALL        LCD_PRINT
000E10 C022 FFE8      01687     MOVFF       RMDL,WREG
000E14 EC?? F???      01688     CALL        LCD_PRINT
000E18 EC?? F???      01689     CALL        DELAY_1
000E1C 0012           01690     RETURN
                      01691 ;;;;;;;;;;;;;;;;;;;;;;;;;;;;;;;;;;;;;;;;;;;;;;;;;;;;;;;;;;;;;;;;;;;;;;;;;;;;;;;;
                      01692 ;Touch Sensor Subroutines
                      01693 ;;;;;;;;;;;;;;;;;;;;;;;;;;;;;;;;;;;;;;;;;;;;;;;;;;;;;;;;;;;;;;;;;;;;;;;;;;;;;;;;
000E1E                01694 Capsensor
000E1E EC?? F???      01695     CALL        DELAY_1
000E22 9880           01696     BCF         PORTA,4
000E24 0EAE           01697     MOVLW       b'10101110'; right justify 
000E26 6EC0           01698     MOVWF       ADCON2     ; Frc , Acquisition Time
000E28 8880           01699     BSF         PORTA,4
000E2A 0E11           01700     MOVLW       b'00010001' ; Point ADC to pin B5
000E2C 6EC2           01701     MOVWF       ADCON0 
000E2E EC?? F???      01702     CALL        DELAY_1
000E32 9492           01703     BCF         TRISA,2     ;Set RA2 as output (Curiosity led D2)
000E34 9538           01704     BCF         ANSELA,2    ;Set RA2 as digital
000E36 9A81           01705     BCF         PORTB,5
000E38 8A93           01706     BSF         TRISB,5     ;Set RA2 as input
000E3A 0E35           01707     MOVLW       b'00110101' ; Point ADC to pin B5
000E3C 6EC2           01708     MOVWF       ADCON0
000E3E EC?? F???      01709     CALL        ADC_FUNC_1
000E42 C00C FFE8      01710     MOVFF       STORED,WREG
000E46 6011           01711     CPFSLT      Cap
000E48 EF?? F???      01712     GOTO        Capsensor
000E4C 0012           01713     RETURN
                      01714 ;;;;;;;;;;;;;;;;;;;;;;;;;;;;;;;;;;;;;;;;;;;;;;;;;;;;;;;;;;;;;;;;;;;;;;;;;;;;;;;;
                      01715 ;Binary to ASCII
                      01716 ;;;;;;;;;;;;;;;;;;;;;;;;;;;;;;;;;;;;;;;;;;;;;;;;;;;;;;;;;;;;;;;;;;;;;;;;;;;;;;;;
000E4E                01717 BIN_TO_DEC:
000E4E 6E00           01718     MOVWF       NUME
000E50 0E0A           01719     MOVLW       DEN
000E52 6A20           01720     CLRF        QU
000E54                01721 D_1
000E54 2A20           01722     INCF        QU
000E56 5E00           01723     SUBWF       NUME
000E58 E2??           01724     BC          D_1
000E5A 2600           01725     ADDWF       NUME
000E5C 0620           01726     DECF        QU
000E5E C000 F022      01727     MOVFF       NUME,RMDL
000E62 C020 F000      01728     MOVFF       QU,NUME
000E66 6A20           01729     CLRF        QU
MPASM 5.87                      COMPLETE.ASM   6-24-2020  7:08:30         PAGE 34


LOC  OBJECT CODE     LINE SOURCE TEXT
  VALUE

000E68                01730 D_2
000E68 2A20           01731     INCF        QU
000E6A 5E00           01732     SUBWF       NUME
000E6C E2??           01733     BC          D_2
000E6E 2600           01734     ADDWF       NUME
000E70 0620           01735     DECF        QU
000E72 C000 F021      01736     MOVFF       NUME,RMDM
000E76 C020 F023      01737     MOVFF       QU,BRH
000E7A 6A20           01738     CLRF        QU
000E7C 0012           01739     RETURN
000E7E                01740 DEC_TO_ASCII:
                      01741     ;Decimal to Ascii is done by adding 30h to the decimal value
000E7E 0E30           01742    MOVLW        0x30
000E80 2623           01743    ADDWF        BRH,1
000E82 0E30           01744    MOVLW        0x30
000E84 2621           01745    ADDWF        RMDM,1
000E86 0E30           01746    MOVLW        0x30
000E88 2622           01747    ADDWF        RMDL,1
000E8A 0012           01748    RETURN
000E8C                01749 BIN_TO_ASCII:
000E8C EC?? F???      01750     CALL    BIN_TO_DEC
000E90 EC?? F???      01751     CALL    DEC_TO_ASCII
000E94 0012           01752     RETURN
                      01753 ;;;;;;;;;;;;;;;;;;;;;;;;;;;;;;;;;;;;;;;;;;;;;;;;;;;;;;;;;;;;;;;;;;;;;;;;;;;;;;;;
                      01754 ;Interupt Subroutines
                      01755 ;;;;;;;;;;;;;;;;;;;;;;;;;;;;;;;;;;;;;;;;;;;;;;;;;;;;;;;;;;;;;;;;;;;;;;;;;;;;;;;;
000E96                01756 ISR_PORT
000E96 9EF2           01757     BCF         INTCON,GIE      ;Disable interupts at the end of the function
000E98 90F2           01758     BCF         INTCON,RBIF     ;Clears the change to port B<4:7> intterupt
000E9A 9A62           01759     BCF         IOCB,5
000E9C EC?? F???      01760     CALL        Capsensor
                      01761     
000EA0 EC?? F???      01762     CALL        REG_PRINT
000EA4 8A93           01763     BSF         TRISB,5
000EA6 9B39           01764     BCF         ANSELB,5
000EA8 0E05           01765     MOVLW       b'00000101' ; AN1,ADC on
000EAA 6EC2           01766     MOVWF       ADCON0 
                      01767     ;ADCON1
000EAC 0E00           01768     MOVLW       b'00000000' ; ADC ref = Vdd,Vss
000EAE 6EC1           01769     MOVWF       ADCON1
                      01770     ;ADCON 2
000EB0 0E2E           01771     MOVLW       b'00101110'; left justify 
000EB2 6EC0           01772     MOVWF       ADCON2     ; Frc , Acquisition Time
000EB4 82C2           01773     BSF         ADCON0,GO  ;Starts the adc module
000EB6 8EF2           01774     BSF         INTCON,GIE ;Enable interupts at the end of the function
000EB8 8E80           01775     BSF         PORTA,7
000EBA 9C81           01776     BCF         PORTB,6
000EBC 0010           01777     RETFIE                      ;Return from interupt  
                      01778     
000EBE                01779 ISR_TIME
000EBE 9EF2           01780     BCF         INTCON,GIE      ;Disables global interupts
000EC0 2A1C           01781     INCF        Timecnt         ;Time inbetween preiods
000EC2 2A2C           01782     INCF        Timecnt1
MPASM 5.87                      COMPLETE.ASM   6-24-2020  7:08:30         PAGE 35


LOC  OBJECT CODE     LINE SOURCE TEXT
  VALUE

000EC4 94F2           01783     BCF         INTCON,TMR0IF   ;Clear the timer flag
000EC6 8EF2           01784     BSF         INTCON,GIE      ;Enables global interupts
000EC8 C02C FFE8      01785     MOVFF       Timecnt1,WREG
000ECC 621F           01786     CPFSEQ      MINUTE          ;If Timecnt = 60 skip
000ECE 0010           01787     RETFIE
000ED0 0E02           01788     MOVLW       0x02
000ED2 6E1C           01789     MOVWF       Timecnt
000ED4 6A2C           01790     CLRF        Timecnt1
000ED6 0010           01791     RETFIE
                      01792 ;;;;;;;;;;;;;;;;;;;;;;;;;;;;;;;;;;;;;;;;;;;;;;;;;;;;;;;;;;;;;;;;;;;;;;;;;;;;;;;;
                      01793 ;Alarm Programs
                      01794 ;;;;;;;;;;;;;;;;;;;;;;;;;;;;;;;;;;;;;;;;;;;;;;;;;;;;;;;;;;;;;;;;;;;;;;;;;;;;;;;;
000ED8                01795 Dead_Alarm      ;Alarm that triggers when there is no breathing for 60 seconds
000ED8 9AF2           01796     BCF         INTCON,TMR0IE
000EDA 8EF2           01797     BSF         INTCON,GIE      ;Global Interupts Enable
000EDC 8A62           01798     BSF         IOCB,5
000EDE 8C81           01799     BSF         PORTB,6
000EE0 8880           01800     BSF         PORTA,4
000EE2 EC?? F???      01801     CALL        DELAY_1
000EE6 8A80           01802     BSF         PORTA,5
000EE8 EC?? F???      01803     CALL        DELAY_1
000EEC 8C80           01804     BSF         PORTA,6
000EEE EC?? F???      01805     CALL        DELAY_1
000EF2 8E80           01806     BSF         PORTA,7
000EF4 EC?? F???      01807     CALL        DELAY_1
000EF8 EC?? F???      01808     CALL        Cursor00
000EFC 0E44           01809     MOVLW       'D'
000EFE EC?? F???      01810     CALL        LCD_PRINT
000F02 0E45           01811     MOVLW       'E'
000F04 EC?? F???      01812     CALL        LCD_PRINT
000F08 0E41           01813     MOVLW       'A'
000F0A EC?? F???      01814     CALL        LCD_PRINT
000F0E 0E44           01815     MOVLW       'D'
000F10 EC?? F???      01816     CALL        LCD_PRINT
000F14 0E21           01817     MOVLW       '!'
000F16 EC?? F???      01818     CALL        LCD_PRINT
000F1A EC?? F???      01819     CALL        Cursor41
000F1E EC?? F???      01820     CALL        DELAY_1
000F22 0E30           01821     MOVLW       '0'
000F24 EC?? F???      01822     CALL        LCD_PRINT
000F28 0E30           01823     MOVLW       '0'
000F2A EC?? F???      01824     CALL        LCD_PRINT
000F2E 0E30           01825     MOVLW       '0'
000F30 EC?? F???      01826     CALL        BIN_TO_ASCII
000F34 EC?? F???      01827     Call        Cursor61
000F38 0E2C           01828     MOVLW       ','
000F3A EC?? F???      01829     CALL        LCD_PRINT
000F3E 0E30           01830     MOVLW       '0'
000F40 EC?? F???      01831     CALL        LCD_PRINT
000F44 0E30           01832     MOVLW       '0'
000F46 EC?? F???      01833     CALL        LCD_PRINT
000F4A AC81           01834     BTFSS       PORTB,6
000F4C EF?? F???      01835     GOTO        Start
MPASM 5.87                      COMPLETE.ASM   6-24-2020  7:08:30         PAGE 36


LOC  OBJECT CODE     LINE SOURCE TEXT
  VALUE

000F50 EF?? F???      01836     GOTO        Dead_Alarm
000F54                01837 DifficultyF:
000F54 9C80           01838     BCF         PORTA,6
000F56 9E80           01839     BCF         PORTA,7
000F58 EC?? F???      01840     CALL        Cursor131
000F5C 0E42           01841     MOVLW       'B'
000F5E EC?? F???      01842     CALL        LCD_PRINT
000F62 0E44           01843     MOVLW       'D'
000F64 EC?? F???      01844     CALL        LCD_PRINT
000F68 0E21           01845     MOVLW       '!'
000F6A EC?? F???      01846     CALL        LCD_PRINT
000F6E 7A80           01847     BTG         PORTA,5
000F70 8C80           01848     BSF         PORTA,6
000F72 0012           01849     RETURN
000F74                01850 DifficultyL:
000F74 9C80           01851     BCF         PORTA,6
000F76 9E80           01852     BCF         PORTA,7
000F78 EC?? F???      01853     CALL        Cursor131
000F7C 0E42           01854     MOVLW       'B'
000F7E EC?? F???      01855     CALL        LCD_PRINT
000F82 0E44           01856     MOVLW       'D'
000F84 EC?? F???      01857     CALL        LCD_PRINT
000F88 0E21           01858     MOVLW       '!'
000F8A EC?? F???      01859     CALL        LCD_PRINT
000F8E 7A80           01860     BTG         PORTA,5
000F90 8E80           01861     BSF         PORTA,7
000F92 0012           01862     RETURN
000F94                01863 Normal:
000F94 EC?? F???      01864     CALL        Cursor131
000F98 0E20           01865     MOVLW       ' '
000F9A EC?? F???      01866     CALL        LCD_PRINT
000F9E 0E20           01867     MOVLW       ' '
000FA0 EC?? F???      01868     CALL        LCD_PRINT
000FA4 0E20           01869     MOVLW       ' '
000FA6 EC?? F???      01870     CALL        LCD_PRINT
000FAA 9A80           01871     BCF         PORTA,5
000FAC 9C80           01872     BCF         PORTA,6
000FAE 9E80           01873     BCF         PORTA,7 
000FB0 0012           01874     RETURN
                      01875 ;;;;;;;;;;;;;;;;;;;;;;;;;;;;;;;;;;;;;;;;;;;;;;;;;;;;;;;;;;;;;;;;;;;;;;;;;;;;;;;;
                      01876 ;EEPROM READ/Write Sub Program
                      01877 ;;;;;;;;;;;;;;;;;;;;;;;;;;;;;;;;;;;;;;;;;;;;;;;;;;;;;;;;;;;;;;;;;;;;;;;;;;;;;;;;    
000FB2                01878 EEPROM_WRITE_HELLO:
000FB2 EC?? F???      01879     CALL        Cursor70
000FB6 0E2E           01880     MOVLW       '.'
000FB8 EC?? F???      01881     CALL        LCD_PRINT
000FBC 0E00           01882     MOVLW       b'00000000'
000FBE 6E1A           01883     MOVWF       ADDRESS
000FC0 0E48           01884     MOVLW       'H'
000FC2 6E2F           01885     MOVWF       I2C_DATA
000FC4 EC?? F???      01886     CALL        EEPROM_WRITE_EX
000FC8 EC?? F???      01887     CALL        DELAY_1
000FCC EC?? F???      01888     CALL        DELAY_1
MPASM 5.87                      COMPLETE.ASM   6-24-2020  7:08:30         PAGE 37


LOC  OBJECT CODE     LINE SOURCE TEXT
  VALUE

                      01889     
000FD0 EC?? F???      01890     CALL        Cursor80
000FD4 0E2E           01891     MOVLW       '.'
000FD6 EC?? F???      01892     CALL        LCD_PRINT
000FDA 0E01           01893     MOVLW       b'00000001'
000FDC 6E1A           01894     MOVWF       ADDRESS
000FDE 0E45           01895     MOVLW       'E'
000FE0 6E2F           01896     MOVWF       I2C_DATA
000FE2 EC?? F???      01897     CALL        EEPROM_WRITE_EX
000FE6 EC?? F???      01898     CALL        DELAY_1
000FEA EC?? F???      01899     CALL        DELAY_1
                      01900     
                      01901     
000FEE EC?? F???      01902     CALL        Cursor90
000FF2 0E2E           01903     MOVLW       '.'
000FF4 EC?? F???      01904     CALL        LCD_PRINT
000FF8 0E02           01905     MOVLW       b'00000010'
000FFA 6E1A           01906     MOVWF       ADDRESS
000FFC 0E4C           01907     MOVLW       'L'
000FFE 6E2F           01908     MOVWF       I2C_DATA
001000 EC?? F???      01909     CALL        EEPROM_WRITE_EX
001004 EC?? F???      01910     CALL        DELAY_1
001008 EC?? F???      01911     CALL        DELAY_1
                      01912     
00100C EC?? F???      01913     CALL        Cursor100
001010 0E2E           01914     MOVLW       '.'
001012 EC?? F???      01915     CALL        LCD_PRINT
001016 0E03           01916     MOVLW       b'00000011'
001018 6E1A           01917     MOVWF       ADDRESS
00101A 0E4F           01918     MOVLW       'O'
00101C 6E2F           01919     MOVWF       I2C_DATA
00101E EC?? F???      01920     CALL        EEPROM_WRITE_EX
001022 EC?? F???      01921     CALL        DELAY_1
001026 EC?? F???      01922     CALL        DELAY_1
                      01923     
00102A EC?? F???      01924     CALL        Cursor110
00102E 0E2E           01925     MOVLW       '.'
001030 EC?? F???      01926     CALL        LCD_PRINT
001034 0E04           01927     MOVLW       b'00000100'
001036 6E1A           01928     MOVWF       ADDRESS
001038 0E20           01929     MOVLW       ' '
00103A 6E2F           01930     MOVWF       I2C_DATA
00103C EC?? F???      01931     CALL        EEPROM_WRITE_EX
001040 EC?? F???      01932     CALL        DELAY_1
001044 EC?? F???      01933     CALL        DELAY_1
                      01934     
001048 EC?? F???      01935     CALL        Cursor120
00104C 0E2E           01936     MOVLW       '.'
00104E EC?? F???      01937     CALL        LCD_PRINT
001052 0E05           01938     MOVLW       b'00000101'
001054 6E1A           01939     MOVWF       ADDRESS
001056 0E57           01940     MOVLW       'W'
001058 6E2F           01941     MOVWF       I2C_DATA
MPASM 5.87                      COMPLETE.ASM   6-24-2020  7:08:30         PAGE 38


LOC  OBJECT CODE     LINE SOURCE TEXT
  VALUE

00105A EC?? F???      01942     CALL        EEPROM_WRITE_EX
00105E EC?? F???      01943     CALL        DELAY_1
001062 EC?? F???      01944     CALL        DELAY_1
                      01945     
001066 EC?? F???      01946     CALL        Cursor130
00106A 0E2E           01947     MOVLW       '.'
00106C EC?? F???      01948     CALL        LCD_PRINT
001070 0E06           01949     MOVLW       b'00000110'
001072 6E1A           01950     MOVWF       ADDRESS
001074 0E52           01951     MOVLW       'R'
001076 6E2F           01952     MOVWF       I2C_DATA
001078 EC?? F???      01953     CALL        EEPROM_WRITE_EX
00107C EC?? F???      01954     CALL        DELAY_1
001080 EC?? F???      01955     CALL        DELAY_1
                      01956     
001084 EC?? F???      01957     CALL        Cursor140
001088 0E2E           01958     MOVLW       '.'
00108A EC?? F???      01959     CALL        LCD_PRINT
00108E 0E07           01960     MOVLW       b'00000111'
001090 6E1A           01961     MOVWF       ADDRESS
001092 0E44           01962     MOVLW       'D'
001094 6E2F           01963     MOVWF       I2C_DATA
001096 EC?? F???      01964     CALL        EEPROM_WRITE_EX
00109A EC?? F???      01965     CALL        DELAY_1
00109E EC?? F???      01966     CALL        DELAY_1
                      01967     
0010A2 EC?? F???      01968     CALL        Cursor150
0010A6 0E2E           01969     MOVLW       '.'
0010A8 EC?? F???      01970     CALL        LCD_PRINT
0010AC 0E08           01971     MOVLW       b'00001000'
0010AE 6E1A           01972     MOVWF       ADDRESS
0010B0 0E21           01973     MOVLW       '!'
0010B2 6E2F           01974     MOVWF       I2C_DATA
0010B4 EC?? F???      01975     CALL        EEPROM_WRITE_EX
0010B8 EC?? F???      01976     CALL        DELAY_1
0010BC EC?? F???      01977     CALL        DELAY_1
                      01978     
0010C0 EC?? F???      01979     CALL        EEPROM_MESSAGE_R
                      01980     
0010C4 EC?? F???      01981     CALL        Cursor71
0010C8 0E2E           01982     MOVLW       '.'
0010CA EC?? F???      01983     CALL        LCD_PRINT
0010CE 0E00           01984     MOVLW       D'0'
0010D0 6E1A           01985     MOVWF       ADDRESS
0010D2 EC?? F???      01986     CALL        EEPROM_READ_EX
0010D6 C02F F030      01987     MOVFF       I2C_DATA,CHAR_H
                      01988     
0010DA EC?? F???      01989     CALL        Cursor81
0010DE 0E2E           01990     MOVLW       '.'
0010E0 EC?? F???      01991     CALL        LCD_PRINT
0010E4 0E01           01992     MOVLW       D'1'
0010E6 6E1A           01993     MOVWF       ADDRESS
0010E8 EC?? F???      01994     CALL        EEPROM_READ_EX
MPASM 5.87                      COMPLETE.ASM   6-24-2020  7:08:30         PAGE 39


LOC  OBJECT CODE     LINE SOURCE TEXT
  VALUE

0010EC C02F F031      01995     MOVFF       I2C_DATA,CHAR_E
                      01996     
0010F0 EC?? F???      01997     CALL        Cursor91
0010F4 0E2E           01998     MOVLW       '.'
0010F6 EC?? F???      01999     CALL        LCD_PRINT
0010FA 0E02           02000     MOVLW       D'2'
0010FC 6E1A           02001     MOVWF       ADDRESS
0010FE EC?? F???      02002     CALL        EEPROM_READ_EX
001102 C02F F032      02003     MOVFF       I2C_DATA,CHAR_L
                      02004     
001106 EC?? F???      02005     CALL        Cursor101
00110A 0E2E           02006     MOVLW       '.'
00110C EC?? F???      02007     CALL        LCD_PRINT
001110 0E03           02008     MOVLW       D'3'
001112 6E1A           02009     MOVWF       ADDRESS
001114 EC?? F???      02010     CALL        EEPROM_READ_EX
001118 C02F F033      02011     MOVFF       I2C_DATA,CHAR_O
                      02012     
00111C EC?? F???      02013     CALL        Cursor111
001120 0E2E           02014     MOVLW       '.'
001122 EC?? F???      02015     CALL        LCD_PRINT
001126 0E04           02016     MOVLW       D'4'
001128 6E1A           02017     MOVWF       ADDRESS
00112A EC?? F???      02018     CALL        EEPROM_READ_EX
00112E C02F F034      02019     MOVFF       I2C_DATA,CHAR_SPACE
                      02020     
001132 EC?? F???      02021     CALL        Cursor121
001136 0E2E           02022     MOVLW       '.'
001138 EC?? F???      02023     CALL        LCD_PRINT
00113C 0E05           02024     MOVLW       D'5'
00113E 6E1A           02025     MOVWF       ADDRESS
001140 EC?? F???      02026     CALL        EEPROM_READ_EX
001144 C02F F035      02027     MOVFF       I2C_DATA,CHAR_W
                      02028     
001148 EC?? F???      02029     CALL        Cursor131
00114C 0E2E           02030     MOVLW       '.'
00114E EC?? F???      02031     CALL        LCD_PRINT
001152 0E06           02032     MOVLW       D'6'
001154 6E1A           02033     MOVWF       ADDRESS
001156 EC?? F???      02034     CALL        EEPROM_READ_EX
00115A C02F F036      02035     MOVFF       I2C_DATA,CHAR_R
                      02036     
00115E EC?? F???      02037     CALL        Cursor141
001162 0E2E           02038     MOVLW       '.'
001164 EC?? F???      02039     CALL        LCD_PRINT
001168 0E07           02040     MOVLW       D'7'
00116A 6E1A           02041     MOVWF       ADDRESS
00116C EC?? F???      02042     CALL        EEPROM_READ_EX
001170 C02F F037      02043     MOVFF       I2C_DATA,CHAR_D
                      02044     
001174 EC?? F???      02045     CALL        Cursor151
001178 0E2E           02046     MOVLW       '.'
00117A EC?? F???      02047     CALL        LCD_PRINT
MPASM 5.87                      COMPLETE.ASM   6-24-2020  7:08:30         PAGE 40


LOC  OBJECT CODE     LINE SOURCE TEXT
  VALUE

00117E 0E08           02048     MOVLW       D'8'
001180 6E1A           02049     MOVWF       ADDRESS
001182 EC?? F???      02050     CALL        EEPROM_READ_EX
001186 C02F F038      02051     MOVFF       I2C_DATA,CHAR_EX
                      02052     
                      02053     
00118A 0012           02054     RETURN
                      02055     
                      02056 ;;;;;;;;;;;;;;;;;;;;;;;;;;;;;;;;;;;;;;;;;;;;;;;;;;;;;;;;;;;;;;;;;;;;;;;;;;;;;;;;
                      02057 ;EEPROM PRINT HELLO WORLD 
                      02058 ;;;;;;;;;;;;;;;;;;;;;;;;;;;;;;;;;;;;;;;;;;;;;;;;;;;;;;;;;;;;;;;;;;;;;;;;;;;;;;;;   
00118C                02059 HELLO_WORLD:
00118C EC?? F???      02060     CALL        LCD_CLEAR
001190 EC?? F???      02061     CALL        Cursor00
001194 C030 FFE8      02062     MOVFF       CHAR_H,WREG
001198 EC?? F???      02063     CALL        BYTE_TX
00119C C030 FFE8      02064     MOVFF       CHAR_H,WREG
0011A0 EC?? F???      02065     CALL        LCD_PRINT
                      02066     
0011A4 C031 FFE8      02067     MOVFF       CHAR_E,WREG
0011A8 EC?? F???      02068     CALL        BYTE_TX
0011AC C031 FFE8      02069     MOVFF       CHAR_E,WREG
0011B0 EC?? F???      02070     CALL        LCD_PRINT
                      02071     
0011B4 C032 FFE8      02072     MOVFF       CHAR_L,WREG
0011B8 EC?? F???      02073     CALL        BYTE_TX
0011BC C032 FFE8      02074     MOVFF       CHAR_L,WREG
0011C0 EC?? F???      02075     CALL        LCD_PRINT
                      02076     
                      02077     
0011C4 C032 FFE8      02078     MOVFF       CHAR_L,WREG
0011C8 EC?? F???      02079     CALL        BYTE_TX
0011CC C032 FFE8      02080     MOVFF       CHAR_L,WREG
0011D0 EC?? F???      02081     CALL        LCD_PRINT
                      02082     
0011D4 C033 FFE8      02083     MOVFF       CHAR_O,WREG
0011D8 EC?? F???      02084     CALL        BYTE_TX
0011DC C033 FFE8      02085     MOVFF       CHAR_O,WREG
0011E0 EC?? F???      02086     CALL        LCD_PRINT
                      02087    
                      02088     
0011E4 C034 FFE8      02089     MOVFF       CHAR_SPACE,WREG
0011E8 EC?? F???      02090     CALL        BYTE_TX
0011EC C034 FFE8      02091     MOVFF       CHAR_SPACE,WREG
0011F0 EC?? F???      02092     CALL        LCD_PRINT
                      02093   
                      02094     
0011F4 C035 FFE8      02095     MOVFF       CHAR_W,WREG
0011F8 EC?? F???      02096     CALL        BYTE_TX
0011FC C035 FFE8      02097     MOVFF       CHAR_W,WREG
001200 EC?? F???      02098     CALL        LCD_PRINT
                      02099    
                      02100     
MPASM 5.87                      COMPLETE.ASM   6-24-2020  7:08:30         PAGE 41


LOC  OBJECT CODE     LINE SOURCE TEXT
  VALUE

001204 C033 FFE8      02101     MOVFF       CHAR_O,WREG
001208 EC?? F???      02102     CALL        BYTE_TX
00120C C033 FFE8      02103     MOVFF       CHAR_O,WREG
001210 EC?? F???      02104     CALL        LCD_PRINT
                      02105     
                      02106     
001214 C036 FFE8      02107     MOVFF       CHAR_R,WREG
001218 EC?? F???      02108     CALL        BYTE_TX
00121C C036 FFE8      02109     MOVFF       CHAR_R,WREG
001220 EC?? F???      02110     CALL        LCD_PRINT
                      02111    
                      02112     
001224 C032 FFE8      02113     MOVFF       CHAR_L,WREG
001228 EC?? F???      02114     CALL        BYTE_TX
00122C C032 FFE8      02115     MOVFF       CHAR_L,WREG
001230 EC?? F???      02116     CALL        LCD_PRINT
                      02117    
                      02118     
001234 C037 FFE8      02119     MOVFF       CHAR_D,WREG
001238 EC?? F???      02120     CALL        BYTE_TX
00123C C037 FFE8      02121     MOVFF       CHAR_D,WREG
001240 EC?? F???      02122     CALL        LCD_PRINT
                      02123    
                      02124     
001244 C038 FFE8      02125     MOVFF       CHAR_EX,WREG
001248 EC?? F???      02126     CALL        BYTE_TX
00124C C038 FFE8      02127     MOVFF       CHAR_EX,WREG
001250 EC?? F???      02128     CALL        LCD_PRINT
                      02129    
001254 EC?? F???      02130     CALL        MES_RET
001258 EC?? F???      02131     CALL        DELAY_1
00125C EC?? F???      02132     CALL        DELAY_1
001260 EC?? F???      02133     CALL        DELAY_1
001264 EC?? F???      02134     CALL        DELAY_1
001268 EC?? F???      02135     CALL        DELAY_1
00126C EC?? F???      02136     CALL        DELAY_1
001270 EC?? F???      02137     CALL        DELAY_1
001274 EC?? F???      02138     CALL        DELAY_1
001278 EC?? F???      02139     CALL        DELAY_1
00127C EC?? F???      02140     CALL        DELAY_1
001280 EC?? F???      02141     CALL        DELAY_1
001284 EC?? F???      02142     CALL        DELAY_1
001288 EC?? F???      02143     CALL        DELAY_1
00128C EC?? F???      02144     CALL        DELAY_1
001290 EC?? F???      02145     CALL        DELAY_1
001294 EC?? F???      02146     CALL        DELAY_1
001298 EC?? F???      02147     CALL        DELAY_1
00129C EC?? F???      02148     CALL        DELAY_1
0012A0 0012           02149     RETURN
0012A2                02150 BPM_MESSAGE_1
0012A2 EC?? F???      02151     CALL        LCD_CLEAR
0012A6 EC?? F???      02152     CALL        Cursor01
0012AA 0E42           02153     MOVLW       'B'
MPASM 5.87                      COMPLETE.ASM   6-24-2020  7:08:30         PAGE 42


LOC  OBJECT CODE     LINE SOURCE TEXT
  VALUE

0012AC EC?? F???      02154     CALL        LCD_PRINT
0012B0 0E50           02155     MOVLW       'P'
0012B2 EC?? F???      02156     CALL        LCD_PRINT
0012B6 0E4D           02157     MOVLW       'M'
0012B8 EC?? F???      02158     CALL        LCD_PRINT
0012BC 0E3A           02159     MOVLW       ':'
0012BE EC?? F???      02160     CALL        LCD_PRINT
0012C2 0012           02161     RETURN
                      02162     
0012C4                02163 BPM_MESSAGE_2
                      02164    ;Wrtite BPM to screen
0012C4 EC?? F???      02165     CALL        Cursor130
0012C8 C02C F027      02166     MOVFF       Timecnt1,Temp
0012CC 90D8           02167     BCF         STATUS,C
0012CE 3227           02168     RRCF        Temp,1
0012D0 90D8           02169     BCF         STATUS,C
0012D2 3027           02170     RRCF        Temp,0
0012D4 EC?? F???      02171     CALL        BIN_TO_ASCII
0012D8 C021 FFE8      02172     MOVFF       RMDM,WREG
0012DC EC?? F???      02173     CALL        LCD_PRINT
0012E0 C022 FFE8      02174     MOVFF       RMDL,WREG
0012E4 EC?? F???      02175     CALL        LCD_PRINT
0012E8 0E53           02176     MOVLW       'S'
0012EA EC?? F???      02177     CALL        LCD_PRINT
0012EE 0012           02178     RETURN
                      02179 ;;;;;;;;;;;;;;;;;;;;;;;;;;;;;;;;;;;;;;;;;;;;;;;;;;;;;;;;;;;;;;;;;;;;;;;;;;;;;;;;
                      02180 ;Instruction Messages Subroutines
                      02181 ;;;;;;;;;;;;;;;;;;;;;;;;;;;;;;;;;;;;;;;;;;;;;;;;;;;;;;;;;;;;;;;;;;;;;;;;;;;;;;;;    
0012F0                02182 Startup_Mes
0012F0 EC?? F???      02183     CALL        LCD_CLEAR
0012F4 EC?? F???      02184     CALL        Cursor00
0012F8 0E50           02185     MOVLW       'P'
0012FA EC?? F???      02186     CALL        LCD_PRINT
0012FE 0E6C           02187     MOVLW       'l'
001300 EC?? F???      02188     CALL        LCD_PRINT
001304 0E65           02189     MOVLW       'e'
001306 EC?? F???      02190     CALL        LCD_PRINT
00130A 0E61           02191     MOVLW       'a'
00130C EC?? F???      02192     CALL        LCD_PRINT
001310 0E73           02193     MOVLW       's'
001312 EC?? F???      02194     CALL        LCD_PRINT
001316 0E65           02195     MOVLW       'e'
001318 EC?? F???      02196     CALL        LCD_PRINT
00131C 0E20           02197     MOVLW       ' '
00131E EC?? F???      02198     CALL        LCD_PRINT
001322 0E50           02199     MOVLW       'P'
001324 EC?? F???      02200     CALL        LCD_PRINT
001328 0E72           02201     MOVLW       'r'
00132A EC?? F???      02202     CALL        LCD_PRINT
00132E 0E65           02203     MOVLW       'e'
001330 EC?? F???      02204     CALL        LCD_PRINT
001334 0E73           02205     MOVLW       's'
001336 EC?? F???      02206     CALL        LCD_PRINT
MPASM 5.87                      COMPLETE.ASM   6-24-2020  7:08:30         PAGE 43


LOC  OBJECT CODE     LINE SOURCE TEXT
  VALUE

00133A 0E73           02207     MOVLW       's'
00133C EC?? F???      02208     CALL        LCD_PRINT
001340 0E20           02209     MOVLW       ' '
001342 EC?? F???      02210     CALL        LCD_PRINT
001346 0E54           02211     MOVLW       'T'
001348 EC?? F???      02212     CALL        LCD_PRINT
00134C 0E68           02213     MOVLW       'h'
00134E EC?? F???      02214     CALL        LCD_PRINT
001352 0E65           02215     MOVLW       'e'
001354 EC?? F???      02216     CALL        LCD_PRINT
001358 EC?? F???      02217     CALL        Cursor01
00135C 0E53           02218     MOVLW       'S'
00135E EC?? F???      02219     CALL        LCD_PRINT
001362 0E77           02220     MOVLW       'w'
001364 EC?? F???      02221     CALL        LCD_PRINT
001368 0E69           02222     MOVLW       'i'
00136A EC?? F???      02223     CALL        LCD_PRINT
00136E 0E74           02224     MOVLW       't'
001370 EC?? F???      02225     CALL        LCD_PRINT
001374 0E63           02226     MOVLW       'c'
001376 EC?? F???      02227     CALL        LCD_PRINT
00137A 0E68           02228     MOVLW       'h'
00137C EC?? F???      02229     CALL        LCD_PRINT
001380 0E20           02230     MOVLW       ' '
001382 EC?? F???      02231     CALL        LCD_PRINT
001386 0E54           02232     MOVLW       'T'
001388 EC?? F???      02233     CALL        LCD_PRINT
00138C 0E6F           02234     MOVLW       'o'
00138E EC?? F???      02235     CALL        LCD_PRINT
001392 0E20           02236     MOVLW       ' '
001394 EC?? F???      02237     CALL        LCD_PRINT
001398 0E53           02238     MOVLW       'S'
00139A EC?? F???      02239     CALL        LCD_PRINT
00139E 0E74           02240     MOVLW       't'
0013A0 EC?? F???      02241     CALL        LCD_PRINT
0013A4 0E61           02242     MOVLW       'a'
0013A6 EC?? F???      02243     CALL        LCD_PRINT
0013AA 0E72           02244     MOVLW       'r'
0013AC EC?? F???      02245     CALL        LCD_PRINT
0013B0 0E74           02246     MOVLW       't'
0013B2 EC?? F???      02247     CALL        LCD_PRINT
0013B6 0E2E           02248     MOVLW       '.'
0013B8 EC?? F???      02249     CALL        LCD_PRINT
0013BC 0012           02250     RETURN
                      02251     
0013BE                02252 EEPROM_MESSAGE
0013BE EC?? F???      02253     CALL        LCD_CLEAR
0013C2 EC?? F???      02254     CALL        Cursor00
0013C6 0E57           02255     MOVLW       'W'
0013C8 EC?? F???      02256     CALL        LCD_PRINT
0013CC 0E52           02257     MOVLW       'R'
0013CE EC?? F???      02258     CALL        LCD_PRINT
0013D2 0E49           02259     MOVLW       'I'
MPASM 5.87                      COMPLETE.ASM   6-24-2020  7:08:30         PAGE 44


LOC  OBJECT CODE     LINE SOURCE TEXT
  VALUE

0013D4 EC?? F???      02260     CALL        LCD_PRINT
0013D8 0E54           02261     MOVLW       'T'
0013DA EC?? F???      02262     CALL        LCD_PRINT
0013DE 0E49           02263     MOVLW       'I'
0013E0 EC?? F???      02264     CALL        LCD_PRINT
0013E4 0E4E           02265     MOVLW       'N'
0013E6 EC?? F???      02266     CALL        LCD_PRINT
0013EA 0E47           02267     MOVLW       'G'
0013EC EC?? F???      02268     CALL        LCD_PRINT 
0013F0 0012           02269     RETURN
                      02270     
0013F2                02271 EEPROM_MESSAGE_R
0013F2 EC?? F???      02272     CALL        Cursor01
0013F6 0E52           02273     MOVLW       'R'
0013F8 EC?? F???      02274     CALL        LCD_PRINT
0013FC 0E45           02275     MOVLW       'E'
0013FE EC?? F???      02276     CALL        LCD_PRINT
001402 0E41           02277     MOVLW       'A'
001404 EC?? F???      02278     CALL        LCD_PRINT
001408 0E44           02279     MOVLW       'D'
00140A EC?? F???      02280     CALL        LCD_PRINT
00140E 0E49           02281     MOVLW       'I'
001410 EC?? F???      02282     CALL        LCD_PRINT
001414 0E4E           02283     MOVLW       'N'
001416 EC?? F???      02284     CALL        LCD_PRINT
00141A 0E47           02285     MOVLW       'G'
00141C EC?? F???      02286     CALL        LCD_PRINT
001420 0012           02287     RETURN
001422                02288 EEPROM_DISPLAY_MESSAGE
001422 EC?? F???      02289     CALL        LCD_CLEAR
001426 EC?? F???      02290     CALL        Cursor00
00142A 0E4E           02291     MOVLW       'N'
00142C EC?? F???      02292     CALL        LCD_PRINT
001430 0E6F           02293     MOVLW       'o'
001432 EC?? F???      02294     CALL        LCD_PRINT
001436 0E77           02295     MOVLW       'w'
001438 EC?? F???      02296     CALL        LCD_PRINT
00143C 0E20           02297     MOVLW       ' '
00143E EC?? F???      02298     CALL        LCD_PRINT
001442 0E70           02299     MOVLW       'p'
001444 EC?? F???      02300     CALL        LCD_PRINT
001448 0E72           02301     MOVLW       'r'
00144A EC?? F???      02302     CALL        LCD_PRINT
00144E 0E69           02303     MOVLW       'i'
001450 EC?? F???      02304     CALL        LCD_PRINT
001454 0E6E           02305     MOVLW       'n'
001456 EC?? F???      02306     CALL        LCD_PRINT
00145A 0E74           02307     MOVLW       't'
00145C EC?? F???      02308     CALL        LCD_PRINT
001460 0E6E           02309     MOVLW       'n'
001462 EC?? F???      02310     CALL        LCD_PRINT
001466 0E67           02311     MOVLW       'g'
001468 EC?? F???      02312     CALL        LCD_PRINT
MPASM 5.87                      COMPLETE.ASM   6-24-2020  7:08:30         PAGE 45


LOC  OBJECT CODE     LINE SOURCE TEXT
  VALUE

00146C 0E20           02313     MOVLW       ' '
00146E EC?? F???      02314     CALL        LCD_PRINT
001472 0E64           02315     MOVLW       'd'
001474 EC?? F???      02316     CALL        LCD_PRINT
001478 0E61           02317     MOVLW       'a'
00147A EC?? F???      02318     CALL        LCD_PRINT
00147E 0E74           02319     MOVLW       't'
001480 EC?? F???      02320     CALL        LCD_PRINT
001484 0E61           02321     MOVLW       'a'
001486 EC?? F???      02322     CALL        LCD_PRINT
00148A EC?? F???      02323     CALL        Cursor01
00148E 0E74           02324     MOVLW       't'
001490 EC?? F???      02325     CALL        LCD_PRINT
001494 0E6F           02326     MOVLW       'o'
001496 EC?? F???      02327     CALL        LCD_PRINT
00149A 0E20           02328     MOVLW       ' '
00149C EC?? F???      02329     CALL        LCD_PRINT
0014A0 0E4C           02330     MOVLW       'L'
0014A2 EC?? F???      02331     CALL        LCD_PRINT
0014A6 0E43           02332     MOVLW       'C'
0014A8 EC?? F???      02333     CALL        LCD_PRINT
0014AC 0E44           02334     MOVLW       'D'
0014AE EC?? F???      02335     CALL        LCD_PRINT
0014B2 0E26           02336     MOVLW       '&'
0014B4 EC?? F???      02337     CALL        LCD_PRINT
0014B8 0E74           02338     MOVLW       't'
0014BA EC?? F???      02339     CALL        LCD_PRINT
0014BE 0E65           02340     MOVLW       'e'
0014C0 EC?? F???      02341     CALL        LCD_PRINT
0014C4 0E72           02342     MOVLW       'r'
0014C6 EC?? F???      02343     CALL        LCD_PRINT
0014CA 0E6D           02344     MOVLW       'm'
0014CC EC?? F???      02345     CALL        LCD_PRINT
0014D0 0E69           02346     MOVLW       'i'
0014D2 EC?? F???      02347     CALL        LCD_PRINT
0014D6 0E6E           02348     MOVLW       'n'
0014D8 EC?? F???      02349     CALL        LCD_PRINT
0014DC 0E61           02350     MOVLW       'a'
0014DE EC?? F???      02351     CALL        LCD_PRINT
0014E2 0E6C           02352     MOVLW       'l'
0014E4 EC?? F???      02353     CALL        LCD_PRINT
0014E8 EC?? F???      02354     CALL        DELAY_1
0014EC EC?? F???      02355     CALL        DELAY_1
0014F0 EC?? F???      02356     CALL        DELAY_1
0014F4 EC?? F???      02357     CALL        DELAY_1
0014F8 EC?? F???      02358     CALL        DELAY_1
0014FC EC?? F???      02359     CALL        DELAY_1
001500 EC?? F???      02360     CALL        DELAY_1
001504 EC?? F???      02361     CALL        DELAY_1
001508 EC?? F???      02362     CALL        DELAY_1
00150C EC?? F???      02363     CALL        DELAY_1
001510 EC?? F???      02364     CALL        DELAY_1
001514 EC?? F???      02365     CALL        DELAY_1
MPASM 5.87                      COMPLETE.ASM   6-24-2020  7:08:30         PAGE 46


LOC  OBJECT CODE     LINE SOURCE TEXT
  VALUE

001518 EC?? F???      02366     CALL        DELAY_1
00151C EC?? F???      02367     CALL        DELAY_1
001520 EC?? F???      02368     CALL        DELAY_1
001524 EC?? F???      02369     CALL        DELAY_1
001528 EC?? F???      02370     CALL        DELAY_1
00152C EC?? F???      02371     CALL        DELAY_1
001530 EC?? F???      02372     CALL        DELAY_1
001534 EC?? F???      02373     CALL        DELAY_1
001538 EC?? F???      02374     CALL        DELAY_1
00153C EC?? F???      02375     CALL        DELAY_1
001540 EC?? F???      02376     CALL        DELAY_1
001544 0012           02377     RETURN
                      02378 
                      02379     
                      02380 ;;;;;;;;;;;;;;;;;;;;;;;;;;;;;;;;;;;;;;;;;;;;;;;;;;;;;;;;;;;;;;;;;;;;;;;;;;;;;;;;
                      02381 ;Calibration
                      02382 ;;;;;;;;;;;;;;;;;;;;;;;;;;;;;;;;;;;;;;;;;;;;;;;;;;;;;;;;;;;;;;;;;;;;;;;;;;;;;;;;     
001546                02383 Cal 
001546 EC?? F???      02384     CALL        Cursor00
00154A 0E53           02385     MOVLW       'S'
00154C EC?? F???      02386     CALL        LCD_PRINT
001550 0E65           02387     MOVLW       'e'
001552 EC?? F???      02388     CALL        LCD_PRINT
001556 0E74           02389     MOVLW       't'
001558 EC?? F???      02390     CALL        LCD_PRINT
00155C 0E20           02391     MOVLW       ' '
00155E EC?? F???      02392     CALL        LCD_PRINT
001562 0E73           02393     MOVLW       's'
001564 EC?? F???      02394     CALL        LCD_PRINT
001568 0E65           02395     MOVLW       'e'
00156A EC?? F???      02396     CALL        LCD_PRINT
00156E 0E6E           02397     MOVLW       'n'
001570 EC?? F???      02398     CALL        LCD_PRINT
001574 0E73           02399     MOVLW       's'
001576 EC?? F???      02400     CALL        LCD_PRINT
00157A 0E6F           02401     MOVLW       'o'
00157C EC?? F???      02402     CALL        LCD_PRINT
001580 0E72           02403     MOVLW       'r'
001582 EC?? F???      02404     CALL        LCD_PRINT
001586 0E20           02405     MOVLW       ' '
001588 EC?? F???      02406     CALL        LCD_PRINT
00158C 0E74           02407     MOVLW       't'
00158E EC?? F???      02408     CALL        LCD_PRINT
001592 0E6F           02409     MOVLW       'o'
001594 EC?? F???      02410     CALL        LCD_PRINT
001598 0E20           02411     MOVLW       ' '
00159A EC?? F???      02412     CALL        LCD_PRINT
00159E EC?? F???      02413     CALL        DELAY_3
0015A2 EC?? F???      02414     CALL        Cursor01
0015A6 0E31           02415     MOVLW       '1'
0015A8 EC?? F???      02416     CALL        LCD_PRINT
0015AC 0E32           02417     MOVLW       '2'
0015AE EC?? F???      02418     CALL        LCD_PRINT
MPASM 5.87                      COMPLETE.ASM   6-24-2020  7:08:30         PAGE 47


LOC  OBJECT CODE     LINE SOURCE TEXT
  VALUE

0015B2 0E37           02419     MOVLW       '7'
0015B4 EC?? F???      02420     CALL        LCD_PRINT
0015B8 0E20           02421     MOVLW       ' '
0015BA EC?? F???      02422     CALL        LCD_PRINT
0015BE 0E3A           02423     MOVLW       ':'
0015C0 EC?? F???      02424     CALL        LCD_PRINT
0015C4 0E20           02425     MOVLW       ' '
0015C6 EC?? F???      02426     CALL        LCD_PRINT
0015CA                02427 Pressure:
0015CA EC?? F???      02428     CALL        DELAY_1
0015CE EC?? F???      02429     CALL        ADC_FUNC
0015D2 EC?? F???      02430     CALL        DELAY_1
0015D6 EC?? F???      02431     CALL        REG_PRINT
0015DA C00C FFE8      02432     MOVFF       STORED,WREG
0015DE 6E00           02433     MOVWF       NUME
0015E0 0E0A           02434     MOVLW       DEN
0015E2 6A20           02435     CLRF        QU
0015E4                02436 E_1
0015E4 2A20           02437     INCF        QU
0015E6 5E00           02438     SUBWF       NUME
0015E8 E2??           02439     BC          E_1
0015EA 2600           02440     ADDWF       NUME
0015EC 0620           02441     DECF        QU
0015EE C000 F00A      02442     MOVFF       NUME,NumL
0015F2 C020 F000      02443     MOVFF       QU,NUME
0015F6 6A20           02444     CLRF        QU
0015F8                02445 E_2
0015F8 2A20           02446     INCF        QU
0015FA 5E00           02447     SUBWF       NUME
0015FC E2??           02448     BC          E_2
0015FE 2600           02449     ADDWF       NUME
001600 0620           02450     DECF        QU
001602 C000 F00B      02451     MOVFF       NUME,NumH
001606 C020 FFE8      02452     MOVFF       QU,WREG
00160A 0F30           02453     ADDLW       0x30
00160C EC?? F???      02454     CALL        LCD_PRINT
001610 6A20           02455     CLRF        QU
001612 EC?? F???      02456     CALL        DELAY_3
001616 C00B FFE8      02457     MOVFF       NumH,WREG
00161A 0F30           02458     ADDLW       0x30
00161C EC?? F???      02459     CALL        LCD_PRINT
001620 EC?? F???      02460     CALL        DELAY_3
001624 C00A FFE8      02461     MOVFF       NumL,WREG
001628 0F30           02462     ADDLW       0x30
00162A EC?? F???      02463     CALL        LCD_PRINT
00162E EC?? F???      02464     CALL        DELAY_1
001632 A881           02465     BTFSS       PORTB,4
001634 EF?? F???      02466     GOTO        Main1
001638 EF?? F???      02467     GOTO        Cal
                      02468     
                      02469 ;;;;;;;;;;;;;;;;;;;;;;;;;;;;;;;;;;;;;;;;;;;;;;;;;;;;;;;;;;;;;;;;;;;;;;;;;;;;;;;;
                      02470 ;Main Program
                      02471 ;;;;;;;;;;;;;;;;;;;;;;;;;;;;;;;;;;;;;;;;;;;;;;;;;;;;;;;;;;;;;;;;;;;;;;;;;;;;;;;;  
MPASM 5.87                      COMPLETE.ASM   6-24-2020  7:08:30         PAGE 48


LOC  OBJECT CODE     LINE SOURCE TEXT
  VALUE

00163C                02472 Main 
00163C EC?? F???      02473     CALL        LCD_CLEAR
001640 EC?? F???      02474     CALL        Cal
001644                02475 Main1
001644 EC?? F???      02476     CALL        EEPROM_MESSAGE
001648 EC?? F???      02477     CALL        EEPROM_WRITE_HELLO
00164C EC?? F???      02478     CALL        EEPROM_DISPLAY_MESSAGE
001650 EC?? F???      02479     CALL        HELLO_WORLD
                      02480     
001654 EC?? F???      02481     CALL        Startup_Mes
001658 8EF2           02482     BSF         INTCON,GIE      ;Global Interupts Enable
00165A 8A62           02483     BSF         IOCB,5
00165C AE80           02484     BTFSS       PORTA,7
00165E EF?? F???      02485     GOTO        $-2
                      02486        
001662 EC?? F???      02487     CALL        BPM_MESSAGE_1
001666 8ED5           02488     BSF         T0CON,TMR0ON    ;Turn on timer0
001668 84BA           02489     BSF         T2CON,TMR2ON    ;Turn on timer2
00166A EC?? F???      02490     CALL        BPM_MESSAGE_2
                      02491     
00166E EF?? F???      02492     GOTO        Check  
                      02493     end
MPASM 5.87                      COMPLETE.ASM   6-24-2020  7:08:30         PAGE 49


SYMBOL TABLE
  LABEL                             VALUE 

A                                 00000000
ABDEN                             00000000
ABDOVF                            00000007
ACCESS                            00000000
ACKDT                             00000005
ACKEN                             00000004
ACKSTAT                           00000006
ACKTIM                            00000007
ACQT0                             00000003
ACQT1                             00000004
ACQT2                             00000005
ADCMD                             00000000
ADCON0                            00000FC2
ADCON1                            00000FC1
ADCON2                            00000FC0
ADCS0                             00000000
ADCS1                             00000001
ADCS2                             00000002
ADC_FUNC                          00000310
ADC_FUNC_1                        0000034E
ADDEN                             00000003
ADDEN1                            00000003
ADDEN2                            00000003
ADDRESS                           0000001A
ADEN                              00000003
ADFM                              00000007
ADIE                              00000006
ADIF                              00000006
ADIP                              00000006
ADON                              00000000
ADRES                             00000FC3
ADRESH                            00000FC4
ADRESL                            00000FC3
ADRR                              0000000F
AHEN                              00000001
AN0                               00000000
AN1                               00000001
AN10                              00000001
AN11                              00000004
AN12                              00000000
AN13                              00000005
AN14                              00000002
AN15                              00000003
AN16                              00000004
AN17                              00000005
AN18                              00000006
AN19                              00000007
AN2                               00000002
AN20                              00000000
AN21                              00000001
AN22                              00000002
AN23                              00000003
AN24                              00000004
MPASM 5.87                      COMPLETE.ASM   6-24-2020  7:08:30         PAGE 50


SYMBOL TABLE
  LABEL                             VALUE 

AN25                              00000005
AN26                              00000006
AN27                              00000007
AN3                               00000003
AN4                               00000005
AN5                               00000000
AN6                               00000001
AN7                               00000002
AN8                               00000002
AN9                               00000003
ANSA0                             00000000
ANSA1                             00000001
ANSA2                             00000002
ANSA3                             00000003
ANSA5                             00000005
ANSB0                             00000000
ANSB1                             00000001
ANSB2                             00000002
ANSB3                             00000003
ANSB4                             00000004
ANSB5                             00000005
ANSC2                             00000002
ANSC3                             00000003
ANSC4                             00000004
ANSC5                             00000005
ANSC6                             00000006
ANSC7                             00000007
ANSD0                             00000000
ANSD1                             00000001
ANSD2                             00000002
ANSD3                             00000003
ANSD4                             00000004
ANSD5                             00000005
ANSD6                             00000006
ANSD7                             00000007
ANSE0                             00000000
ANSE1                             00000001
ANSE2                             00000002
ANSELA                            00000F38
ANSELB                            00000F39
ANSELC                            00000F3A
ANSELD                            00000F3B
ANSELE                            00000F3C
Average                           00000326
Average_1                         00000360
BANKED                            00000001
BAUD1CON                          00000FB8
BAUD2CON                          00000F70
BAUDCON                           00000FB8
BAUDCON1                          00000FB8
BAUDCON2                          00000F70
BAUDCTL                           00000FB8
BCL1IE                            00000003
MPASM 5.87                      COMPLETE.ASM   6-24-2020  7:08:30         PAGE 51


SYMBOL TABLE
  LABEL                             VALUE 

BCL1IF                            00000003
BCL1IP                            00000003
BCL2IE                            00000006
BCL2IF                            00000006
BCL2IP                            00000006
BCLIE                             00000003
BCLIF                             00000003
BCLIP                             00000003
BF                                00000000
BGST                              00000005
BGVST                             00000006
BIN_TO_ASCII                      00000E8C
BIN_TO_DEC                        00000E4E
BOEN                              00000004
BOR                               00000000
BPM_MESSAGE_1                     000012A2
BPM_MESSAGE_2                     000012C4
BRG16                             00000003
BRGH                              00000002
BRGH1                             00000002
BRGH2                             00000002
BRH                               00000023
BRL                               00000025
BRM                               00000024
BSR                               00000FE0
BYTE_TX                           000001EE
B_1                               00000DBE
BreI                              00000016
BreN                              00000014
BreO                              00000015
Breathrate                        00000DB4
C                                 00000000
C12IN0M                           00000000
C12IN0N                           00000000
C12IN1M                           00000001
C12IN1N                           00000001
C12IN2M                           00000003
C12IN2N                           00000003
C12IN3M                           00000001
C12IN3N                           00000001
C1CH0                             00000000
C1CH1                             00000001
C1HYS                             00000003
C1IE                              00000006
C1IF                              00000006
C1INP                             00000003
C1IP                              00000006
C1OE                              00000005
C1ON                              00000007
C1OUT_CM1CON                      00000006
C1OUT_CM1CON0                     00000006
C1OUT_PORTA                       00000004
C1POL                             00000004
MPASM 5.87                      COMPLETE.ASM   6-24-2020  7:08:30         PAGE 52


SYMBOL TABLE
  LABEL                             VALUE 

C1R                               00000002
C1RSEL                            00000005
C1SP                              00000003
C1SYNC                            00000001
C1TSEL0                           00000000
C1TSEL1                           00000001
C2CH0                             00000000
C2CH1                             00000001
C2HYS                             00000002
C2IE                              00000005
C2IF                              00000005
C2INP                             00000002
C2IP                              00000005
C2OE                              00000005
C2ON                              00000007
C2OUT_CM2CON                      00000006
C2OUT_CM2CON0                     00000006
C2OUT_PORTA                       00000005
C2POL                             00000004
C2R                               00000002
C2RSEL                            00000004
C2SP                              00000003
C2SYNC                            00000000
C2TSEL0                           00000003
C2TSEL1                           00000004
C3TSEL0                           00000006
C3TSEL1                           00000007
C4TSEL0                           00000000
C4TSEL1                           00000001
C5TSEL0                           00000002
C5TSEL1                           00000003
CCP1                              00000002
CCP1AS0                           00000004
CCP1AS1                           00000005
CCP1AS2                           00000006
CCP1ASE                           00000007
CCP1CON                           00000FBD
CCP1IE                            00000002
CCP1IF                            00000002
CCP1IP                            00000002
CCP1M0                            00000000
CCP1M1                            00000001
CCP1M2                            00000002
CCP1M3                            00000003
CCP1MD                            00000000
CCP2AS                            00000F64
CCP2AS0                           00000004
CCP2AS1                           00000005
CCP2AS2                           00000006
CCP2ASE                           00000007
CCP2CON                           00000F66
CCP2IE                            00000000
CCP2IF                            00000000
MPASM 5.87                      COMPLETE.ASM   6-24-2020  7:08:30         PAGE 53


SYMBOL TABLE
  LABEL                             VALUE 

CCP2IP                            00000000
CCP2M0                            00000000
CCP2M1                            00000001
CCP2M2                            00000002
CCP2M3                            00000003
CCP2MD                            00000001
CCP2_PORTB                        00000003
CCP2_PORTC                        00000001
CCP3AS                            00000F5B
CCP3AS0                           00000004
CCP3AS1                           00000005
CCP3AS2                           00000006
CCP3ASE                           00000007
CCP3CON                           00000F5D
CCP3IE                            00000000
CCP3IF                            00000000
CCP3IP                            00000000
CCP3M0                            00000000
CCP3M1                            00000001
CCP3M2                            00000002
CCP3M3                            00000003
CCP3MD                            00000002
CCP3_PORTB                        00000005
CCP3_PORTE                        00000000
CCP4                              00000001
CCP4CON                           00000F57
CCP4IE                            00000001
CCP4IF                            00000001
CCP4IP                            00000001
CCP4M0                            00000000
CCP4M1                            00000001
CCP4M2                            00000002
CCP4M3                            00000003
CCP4MD                            00000003
CCP5                              00000002
CCP5CON                           00000F54
CCP5IE                            00000002
CCP5IF                            00000002
CCP5IP                            00000002
CCP5M0                            00000000
CCP5M1                            00000001
CCP5M2                            00000002
CCP5M3                            00000003
CCP5MD                            00000004
CCPR1                             00000FBE
CCPR1H                            00000FBF
CCPR1L                            00000FBE
CCPR2                             00000F67
CCPR2H                            00000F68
CCPR2L                            00000F67
CCPR3                             00000F5E
CCPR3H                            00000F5F
CCPR3L                            00000F5E
MPASM 5.87                      COMPLETE.ASM   6-24-2020  7:08:30         PAGE 54


SYMBOL TABLE
  LABEL                             VALUE 

CCPR4                             00000F58
CCPR4H                            00000F59
CCPR4L                            00000F58
CCPR5                             00000F55
CCPR5H                            00000F56
CCPR5L                            00000F55
CCPTMRS0                          00000F49
CCPTMRS1                          00000F48
CFGS                              00000006
CHAR                              0000001B
CHAR_D                            00000037
CHAR_E                            00000031
CHAR_EX                           00000038
CHAR_H                            00000030
CHAR_L                            00000032
CHAR_O                            00000033
CHAR_R                            00000036
CHAR_SPACE                        00000034
CHAR_W                            00000035
CHS0                              00000002
CHS1                              00000003
CHS2                              00000004
CHS3                              00000005
CHS4                              00000006
CK                                00000006
CK1                               00000006
CK2                               00000006
CKE                               00000006
CKP                               00000004
CKTXP                             00000004
CLEAR                             0000017C
CM12CON                           00000F77
CM1CON                            00000F79
CM1CON0                           00000F79
CM2CON                            00000F78
CM2CON0                           00000F78
CM2CON1                           00000F77
CMP1MD                            00000001
CMP2MD                            00000002
CNTVAL                            00000003
COUNT                             00000010
CREN                              00000004
CREN1                             00000004
CREN2                             00000004
CSRC                              00000007
CSRC1                             00000007
CSRC2                             00000007
CTED1                             00000002
CTED2                             00000003
CTMUCON0                          00000F45
CTMUCON1                          00000F44
CTMUCONH                          00000F45
CTMUCONL                          00000F44
MPASM 5.87                      COMPLETE.ASM   6-24-2020  7:08:30         PAGE 55


SYMBOL TABLE
  LABEL                             VALUE 

CTMUEN                            00000007
CTMUICON                          00000F43
CTMUICONH                         00000F43
CTMUIE                            00000003
CTMUIF                            00000003
CTMUIP                            00000003
CTMUMD                            00000003
CTMUSIDL                          00000005
CTPLS                             00000002
CTTRIG                            00000000
CURX0                             000007D0
CURX1                             000007F2
CVREF                             00000002
Cal                               00001546
Calibration                       00000C54
Calresult                         00000039
Cap                               00000011
Capsensor                         00000E1E
Char1                             00000001
Char2                             00000002
Char3                             00000003
Char4                             00000004
Char5                             00000005
Char6                             00000006
Char7                             00000007
Char8                             00000008
Check                             00000CB6
Count                             00000009
Cursor00                          00000814
Cursor01                          00000A34
Cursor10                          00000836
Cursor100                         00000968
Cursor101                         00000B88
Cursor11                          00000A56
Cursor110                         0000098A
Cursor111                         00000BAA
Cursor120                         000009AC
Cursor121                         00000BCC
Cursor130                         000009CE
Cursor131                         00000BEE
Cursor140                         000009F0
Cursor141                         00000C10
Cursor150                         00000A12
Cursor151                         00000C32
Cursor20                          00000858
Cursor21                          00000A78
Cursor30                          0000087A
Cursor31                          00000A9A
Cursor40                          0000089C
Cursor41                          00000ABC
Cursor50                          000008BE
Cursor51                          00000ADE
Cursor60                          000008E0
MPASM 5.87                      COMPLETE.ASM   6-24-2020  7:08:30         PAGE 56


SYMBOL TABLE
  LABEL                             VALUE 

Cursor61                          00000B00
Cursor70                          00000902
Cursor71                          00000B22
Cursor80                          00000924
Cursor81                          00000B44
Cursor90                          00000946
Cursor91                          00000B66
D                                 00000005
DACCON0                           00000F41
DACCON1                           00000F40
DACEN                             00000007
DACLPS                            00000006
DACNSS                            00000000
DACOE                             00000005
DACOUT                            00000002
DACPSS0                           00000002
DACPSS1                           00000003
DACR0                             00000000
DACR1                             00000001
DACR2                             00000002
DACR3                             00000003
DACR4                             00000004
DC                                00000001
DC1B0                             00000004
DC1B1                             00000005
DC2B0                             00000004
DC2B1                             00000005
DC3B0                             00000004
DC3B1                             00000005
DC4B0                             00000004
DC4B1                             00000005
DC5B0                             00000004
DC5B1                             00000005
DDRA                              TRISA
DDRB                              TRISB
DDRC                              TRISC
DDRD                              TRISD
DDRE                              TRISE
DEC_TO_ASCII                      00000E7E
DELAY_1                           000000FC
DELAY_2                           00000114
DELAY_3                           0000012E
DELAY_4                           00000148
DEN                               0000000A
DHEN                              00000000
DIFFHIGH                          0000002E
DIFFLOW                           0000002D
DONE                              00000001
DT1                               00000007
DT2                               00000007
DTRXP                             00000005
D_1                               00000E54
D_2                               00000E68
MPASM 5.87                      COMPLETE.ASM   6-24-2020  7:08:30         PAGE 57


SYMBOL TABLE
  LABEL                             VALUE 

D_A                               00000005
D_NOT_A                           00000005
Dead_Alarm                        00000ED8
DelayCount                        00000012
DelayCount1                       00000013
Delta                             00000029
Der                               0000002A
DerR                              0000002B
DerivativeADC                     000003E2
Derivative_DELAY                  00000162
DifficultyF                       00000F54
DifficultyL                       00000F74
ECCP1AS                           00000FB6
ECCP2AS                           00000F64
ECCP3AS                           00000F5B
ECCPAS                            00000FB6
ECCPAS0                           00000004
ECCPAS1                           00000005
ECCPAS2                           00000006
ECCPASE                           00000007
EDATA                             00000010
EDG1POL                           00000004
EDG1SEL0                          00000002
EDG1SEL1                          00000003
EDG1STAT                          00000000
EDG2POL                           00000007
EDG2SEL0                          00000005
EDG2SEL1                          00000006
EDG2STAT                          00000001
EDGEN                             00000003
EDGSEQEN                          00000002
EEADR                             00000FA9
EEADR0                            00000000
EEADR1                            00000001
EEADR2                            00000002
EEADR3                            00000003
EEADR4                            00000004
EEADR5                            00000005
EEADR6                            00000006
EEADR7                            00000007
EECON1                            00000FA6
EECON2                            00000FA7
EEDATA                            00000FA8
EEIE                              00000004
EEIF                              00000004
EEIP                              00000004
EEPGD                             00000007
EEPROM_DISPLAY_MESSAGE            00001422
EEPROM_MESSAGE                    000013BE
EEPROM_MESSAGE_R                  000013F2
EEPROM_READ_EX                    00000488
EEPROM_WRITE_EX                   0000044C
EEPROM_WRITE_HELLO                00000FB2
MPASM 5.87                      COMPLETE.ASM   6-24-2020  7:08:30         PAGE 58


SYMBOL TABLE
  LABEL                             VALUE 

E_1                               000015E4
E_2                               000015F8
Exhale_Message                    00000C8C
FAILED                            000004E6
FAST                              00000001
FERR                              00000002
FERR1                             00000002
FERR2                             00000002
FLT0                              00000000
FREE                              00000004
FSR0                              00000000
FSR0H                             00000FEA
FSR0L                             00000FE9
FSR1                              00000001
FSR1H                             00000FE2
FSR1L                             00000FE1
FSR2                              00000002
FSR2H                             00000FDA
FSR2L                             00000FD9
FVRCON                            00000F42
FVREN                             00000007
FVRS0                             00000004
FVRS1                             00000005
FVRST                             00000006
GCEN                              00000007
GIE                               00000007
GIEH                              00000007
GIEL                              00000006
GIE_GIEH                          00000007
GO                                00000001
GO_DONE                           00000001
GO_NOT_DONE                       00000001
HELLO_WORLD                       0000118C
HFIOFS                            00000002
HLVDCON                           00000F9C
HLVDEN                            00000004
HLVDIE                            00000002
HLVDIF                            00000002
HLVDIN                            00000005
HLVDIP                            00000002
HLVDL0                            00000000
HLVDL1                            00000001
HLVDL2                            00000002
HLVDL3                            00000003
I2C_DATA                          0000002F
IDISSEN                           00000001
IDLEN                             00000007
IN                                00000CEA
IN1                               00000D0E
INDF0                             00000FEF
INDF1                             00000FE7
INDF2                             00000FDF
INPUT                             00000000
MPASM 5.87                      COMPLETE.ASM   6-24-2020  7:08:30         PAGE 59


SYMBOL TABLE
  LABEL                             VALUE 

INT0                              00000000
INT0E                             00000004
INT0F                             00000001
INT0IE                            00000004
INT0IF                            00000001
INT1                              00000001
INT1E                             00000003
INT1F                             00000000
INT1IE                            00000003
INT1IF                            00000000
INT1IP                            00000006
INT1P                             00000006
INT2                              00000002
INT2E                             00000004
INT2F                             00000001
INT2IE                            00000004
INT2IF                            00000001
INT2IP                            00000007
INT2P                             00000007
INTCON                            00000FF2
INTCON2                           00000FF1
INTCON3                           00000FF0
INTEDG0                           00000006
INTEDG1                           00000005
INTEDG2                           00000004
INTSRC                            00000007
IOCB                              00000F62
IOCB4                             00000004
IOCB5                             00000005
IOCB6                             00000006
IOCB7                             00000007
IOFS                              00000002
IOSC                              0000004C
IPEN                              00000007
IPR1                              00000F9F
IPR2                              00000FA2
IPR3                              00000FA5
IPR4                              00000F7C
IPR5                              00000F7F
IRCF0                             00000004
IRCF1                             00000005
IRCF2                             00000006
IRNG0                             00000000
IRNG1                             00000001
IRVST                             00000005
ISR_PORT                          00000E96
ISR_TIME                          00000EBE
ITRIM0                            00000002
ITRIM1                            00000003
ITRIM2                            00000004
ITRIM3                            00000005
ITRIM4                            00000006
ITRIM5                            00000007
MPASM 5.87                      COMPLETE.ASM   6-24-2020  7:08:30         PAGE 60


SYMBOL TABLE
  LABEL                             VALUE 

IVRST                             00000005
Inhale_Message                    00000C6A
KBI0                              00000004
KBI1                              00000005
KBI2                              00000006
KBI3                              00000007
LATA                              00000F89
LATA0                             00000000
LATA1                             00000001
LATA2                             00000002
LATA3                             00000003
LATA4                             00000004
LATA5                             00000005
LATA6                             00000006
LATA7                             00000007
LATB                              00000F8A
LATB0                             00000000
LATB1                             00000001
LATB2                             00000002
LATB3                             00000003
LATB4                             00000004
LATB5                             00000005
LATB6                             00000006
LATB7                             00000007
LATC                              00000F8B
LATC0                             00000000
LATC1                             00000001
LATC2                             00000002
LATC3                             00000003
LATC4                             00000004
LATC5                             00000005
LATC6                             00000006
LATC7                             00000007
LATD                              00000F8C
LATD0                             00000000
LATD1                             00000001
LATD2                             00000002
LATD3                             00000003
LATD4                             00000004
LATD5                             00000005
LATD6                             00000006
LATD7                             00000007
LATE                              00000F8D
LATE0                             00000000
LATE1                             00000001
LATE2                             00000002
LCD_CLEAR                         00000716
LCD_CURSOR                        00000754
LCD_INT                           00000576
LCD_NoCURSOR                      00000792
LCD_PRINT                         00000522
LCD_Write                         000004EE
LFIOFS                            00000000
MPASM 5.87                      COMPLETE.ASM   6-24-2020  7:08:30         PAGE 61


SYMBOL TABLE
  LABEL                             VALUE 

LVDCON                            00000F9C
LVDEN                             00000004
LVDIE                             00000002
LVDIF                             00000002
LVDIN                             00000005
LVDIP                             00000002
LVDL0                             00000000
LVDL1                             00000001
LVDL2                             00000002
LVDL3                             00000003
LVV0                              00000000
LVV1                              00000001
LVV2                              00000002
LVV3                              00000003
Lcnt                              00000026
Lcount                            000002F4
Line                              000002F0
Loop1                             00000102
Loop10                            00000170
Loop2                             0000010A
Loop3                             0000011C
Loop4                             00000124
Loop5                             00000136
Loop6                             0000013E
Loop7                             00000150
Loop8                             00000158
Loop9                             00000168
MC1OUT                            00000007
MC2OUT                            00000006
MCLR                              00000003
MES_RET                           00000302
MFIOFS                            00000001
MFIOSEL                           00000004
MINUTE                            0000001F
MSK0                              00000000
MSK1                              00000001
MSK2                              00000002
MSK3                              00000003
MSK4                              00000004
MSK5                              00000005
MSK6                              00000006
MSK7                              00000007
MSSP1MD                           00000006
MSSP2MD                           00000007
Main                              0000163C
Main1                             00001644
Menu                              000001F8
Moving_Average                    00000D74
N                                 00000004
NIB1                              00000017
NIB2                              00000018
NIB3                              00000019
NOT_A                             00000005
MPASM 5.87                      COMPLETE.ASM   6-24-2020  7:08:30         PAGE 62


SYMBOL TABLE
  LABEL                             VALUE 

NOT_ADDRESS                       00000005
NOT_BOR                           00000000
NOT_DONE                          00000001
NOT_MCLR                          00000003
NOT_PD                            00000002
NOT_POR                           00000001
NOT_RBPU                          00000007
NOT_RI                            00000004
NOT_SS                            00000005
NOT_SS1                           00000005
NOT_SS2                           00000003
NOT_T1SYNC                        00000002
NOT_T3SYNC                        00000002
NOT_T5SYNC                        00000002
NOT_TO                            00000003
NOT_W                             00000002
NOT_WRITE                         00000002
NUME                              00000000
NVCFG0                            00000000
NVCFG1                            00000001
Normal                            00000F94
NumH                              0000000B
NumL                              0000000A
OERR                              00000001
OERR1                             00000001
OERR2                             00000001
OSCCON                            00000FD3
OSCCON2                           00000FD2
OSCFIE                            00000007
OSCFIF                            00000007
OSCFIP                            00000007
OSCTUNE                           00000F9B
OSTS                              00000003
OUT                               00000D46
OV                                00000003
P                                 00000004
P1A                               00000002
P1B                               00000005
P1C                               00000006
P1D                               00000007
P1DC0                             00000000
P1DC1                             00000001
P1DC2                             00000002
P1DC3                             00000003
P1DC4                             00000004
P1DC5                             00000005
P1DC6                             00000006
P1M0                              00000006
P1M1                              00000007
P1RSEN                            00000007
P1SSAC0                           00000002
P1SSAC1                           00000003
P1SSBD0                           00000000
MPASM 5.87                      COMPLETE.ASM   6-24-2020  7:08:30         PAGE 63


SYMBOL TABLE
  LABEL                             VALUE 

P1SSBD1                           00000001
P2A_PORTB                         00000003
P2A_PORTC                         00000001
P2B_PORTC                         00000000
P2B_PORTD                         00000002
P2C                               00000003
P2D                               00000004
P2DC0                             00000000
P2DC1                             00000001
P2DC2                             00000002
P2DC3                             00000003
P2DC4                             00000004
P2DC5                             00000005
P2DC6                             00000006
P2M0                              00000006
P2M1                              00000007
P2RSEN                            00000007
P2SSAC0                           00000002
P2SSAC1                           00000003
P2SSBD0                           00000000
P2SSBD1                           00000001
P3A_PORTB                         00000005
P3A_PORTE                         00000000
P3B                               00000001
P3DC0                             00000000
P3DC1                             00000001
P3DC2                             00000002
P3DC3                             00000003
P3DC4                             00000004
P3DC5                             00000005
P3DC6                             00000006
P3M0                              00000006
P3M1                              00000007
P3RSEN                            00000007
P3SSAC0                           00000002
P3SSAC1                           00000003
P3SSBD0                           00000000
P3SSBD1                           00000001
PC                                00000FF9
PCIE                              00000006
PCL                               00000FF9
PCLATH                            00000FFA
PCLATU                            00000FFB
PD                                00000002
PDC0                              00000000
PDC1                              00000001
PDC2                              00000002
PDC3                              00000003
PDC4                              00000004
PDC5                              00000005
PDC6                              00000006
PEIE                              00000006
PEIE_GIEL                         00000006
MPASM 5.87                      COMPLETE.ASM   6-24-2020  7:08:30         PAGE 64


SYMBOL TABLE
  LABEL                             VALUE 

PEN                               00000002
PGC                               00000006
PGD                               00000007
PIE1                              00000F9D
PIE2                              00000FA0
PIE3                              00000FA3
PIE4                              00000F7A
PIE5                              00000F7D
PIR1                              00000F9E
PIR2                              00000FA1
PIR3                              00000FA4
PIR4                              00000F7B
PIR5                              00000F7E
PLLEN                             00000006
PLLRDY                            00000007
PLUSW0                            00000FEB
PLUSW1                            00000FE3
PLUSW2                            00000FDB
PMD0                              00000F3F
PMD1                              00000F3E
PMD2                              00000F3D
POLL_TX                           000001F0
POR                               00000001
PORTA                             00000F80
PORTB                             00000F81
PORTC                             00000F82
PORTD                             00000F83
PORTE                             00000F84
POSTDEC0                          00000FED
POSTDEC1                          00000FE5
POSTDEC2                          00000FDD
POSTINC0                          00000FEE
POSTINC1                          00000FE6
POSTINC2                          00000FDE
PR2                               00000FBB
PR4                               00000F52
PR6                               00000F4B
PREINC0                           00000FEC
PREINC1                           00000FE4
PREINC2                           00000FDC
PRISD                             00000002
PROD                              00000FF3
PRODH                             00000FF4
PRODL                             00000FF3
PRSEN                             00000007
PSA                               00000003
PSS1AC0                           00000002
PSS1AC1                           00000003
PSS1BD0                           00000000
PSS1BD1                           00000001
PSS2AC0                           00000002
PSS2AC1                           00000003
PSS2BD0                           00000000
MPASM 5.87                      COMPLETE.ASM   6-24-2020  7:08:30         PAGE 65


SYMBOL TABLE
  LABEL                             VALUE 

PSS2BD1                           00000001
PSS3AC0                           00000002
PSS3AC1                           00000003
PSS3BD0                           00000000
PSS3BD1                           00000001
PSSAC0                            00000002
PSSAC1                            00000003
PSSBD0                            00000000
PSSBD1                            00000001
PSTR1CON                          00000FB9
PSTR2CON                          00000F63
PSTR3CON                          00000F5A
PSTRCON                           00000FB9
PVCFG0                            00000002
PVCFG1                            00000003
PWM1CON                           00000FB7
PWM2CON                           00000F65
PWM3CON                           00000F5C
PWMCON                            00000FB7
Pressure                          000015CA
QU                                00000020
R                                 00000002
RA0                               00000000
RA1                               00000001
RA2                               00000002
RA3                               00000003
RA4                               00000004
RA5                               00000005
RA6                               00000006
RA7                               00000007
RB0                               00000000
RB1                               00000001
RB2                               00000002
RB3                               00000003
RB4                               00000004
RB5                               00000005
RB6                               00000006
RB7                               00000007
RBIE                              00000003
RBIF                              00000000
RBIP                              00000000
RBPU                              00000007
RC0                               00000000
RC1                               00000001
RC1IE                             00000005
RC1IF                             00000005
RC1IP                             00000005
RC1REG                            00000FAE
RC1STA                            00000FAB
RC2                               00000002
RC2IE                             00000005
RC2IF                             00000005
RC2IP                             00000005
MPASM 5.87                      COMPLETE.ASM   6-24-2020  7:08:30         PAGE 66


SYMBOL TABLE
  LABEL                             VALUE 

RC2REG                            00000F74
RC2STA                            00000F71
RC3                               00000003
RC4                               00000004
RC5                               00000005
RC6                               00000006
RC7                               00000007
RCEN                              00000003
RCIDL                             00000006
RCIE                              00000005
RCIF                              00000005
RCIP                              00000005
RCON                              00000FD0
RCREG                             00000FAE
RCREG1                            00000FAE
RCREG2                            00000F74
RCSTA                             00000FAB
RCSTA1                            00000FAB
RCSTA2                            00000F71
RD                                00000000
RD0                               00000000
RD1                               00000001
RD16                              00000001
RD2                               00000002
RD3                               00000003
RD4                               00000004
RD5                               00000005
RD6                               00000006
RD7                               00000007
RE0                               00000000
RE1                               00000001
RE2                               00000002
RE3                               00000003
READ_IN                           00000186
REG_PRINT                         00000384
RESULT                            00000040
RI                                00000004
RMDH                              00000020
RMDL                              00000022
RMDM                              00000021
RSEN                              00000001
RX                                00000007
RX1                               00000007
RX2                               00000007
RX9                               00000006
RX91                              00000006
RX92                              00000006
RX9D                              00000000
RX9D1                             00000000
RX9D2                             00000000
RX_DATA                           00000192
R_NOT_W                           00000002
R_W                               00000002
MPASM 5.87                      COMPLETE.ASM   6-24-2020  7:08:30         PAGE 67


SYMBOL TABLE
  LABEL                             VALUE 

S                                 00000003
SBCDE                             00000002
SBOREN                            00000006
SCIE                              00000005
SCK                               00000003
SCK1                              00000003
SCK2                              00000000
SCKP                              00000004
SCL                               00000003
SCL1                              00000003
SCL2                              00000000
SCS0                              00000000
SCS1                              00000001
SDA                               00000004
SDA1                              00000004
SDA2                              00000001
SDAHT                             00000003
SDI                               00000004
SDI1                              00000004
SDI2                              00000001
SDO                               00000005
SDO1                              00000005
SDO2                              00000004
SEN                               00000000
SENDB                             00000003
SENDB1                            00000003
SENDB2                            00000003
SLRA                              00000000
SLRB                              00000001
SLRC                              00000002
SLRCON                            00000F60
SLRD                              00000003
SLRE                              00000004
SMP                               00000007
SOSCGO                            00000003
SOSCRUN                           00000006
SP0                               00000000
SP1                               00000001
SP1BRG                            00000FAF
SP1BRGH                           00000FB0
SP2                               00000002
SP2BRG                            00000F75
SP2BRGH                           00000F76
SP3                               00000003
SP4                               00000004
SPBRG                             00000FAF
SPBRG1                            00000FAF
SPBRG2                            00000F75
SPBRGH                            00000FB0
SPBRGH1                           00000FB0
SPBRGH2                           00000F76
SPEN                              00000007
SPEN1                             00000007
MPASM 5.87                      COMPLETE.ASM   6-24-2020  7:08:30         PAGE 68


SYMBOL TABLE
  LABEL                             VALUE 

SPEN2                             00000007
SRCLK0                            00000004
SRCLK1                            00000005
SRCLK2                            00000006
SRCON0                            00000F47
SRCON1                            00000F46
SREN                              00000005
SREN1                             00000005
SREN2                             00000005
SRI                               00000000
SRLEN                             00000007
SRNQ                              00000005
SRNQEN                            00000002
SRPR                              00000000
SRPS                              00000001
SRQ                               00000004
SRQEN                             00000003
SRRC1E                            00000000
SRRC2E                            00000001
SRRCKE                            00000002
SRRPE                             00000003
SRSC1E                            00000004
SRSC2E                            00000005
SRSCKE                            00000006
SRSPE                             00000007
SS                                00000005
SS1                               00000005
SS2                               00000003
SSP1ADD                           00000FC8
SSP1BUF                           00000FC9
SSP1CON1                          00000FC6
SSP1CON2                          00000FC5
SSP1CON3                          00000FCB
SSP1IE                            00000003
SSP1IF                            00000003
SSP1IP                            00000003
SSP1MSK                           00000FCA
SSP1STAT                          00000FC7
SSP2ADD                           00000F6E
SSP2BUF                           00000F6F
SSP2CON1                          00000F6C
SSP2CON2                          00000F6B
SSP2CON3                          00000F69
SSP2IE                            00000007
SSP2IF                            00000007
SSP2IP                            00000007
SSP2MSK                           00000F6A
SSP2STAT                          00000F6D
SSPADD                            00000FC8
SSPBUF                            00000FC9
SSPCON1                           00000FC6
SSPCON2                           00000FC5
SSPCON3                           00000FCB
MPASM 5.87                      COMPLETE.ASM   6-24-2020  7:08:30         PAGE 69


SYMBOL TABLE
  LABEL                             VALUE 

SSPEN                             00000005
SSPIE                             00000003
SSPIF                             00000003
SSPIP                             00000003
SSPM0                             00000000
SSPM1                             00000001
SSPM2                             00000002
SSPM3                             00000003
SSPMSK                            00000FCA
SSPOV                             00000006
SSPSTAT                           00000FC7
STATUS                            00000FD8
STKFUL                            00000007
STKOVF                            00000007
STKPTR                            00000FFC
STKPTR0                           00000000
STKPTR1                           00000001
STKPTR2                           00000002
STKPTR3                           00000003
STKPTR4                           00000004
STKUNF                            00000006
STORED                            0000000C
STORED_OLD                        0000000E
STORE_OLD                         0000000D
STR1A                             00000000
STR1B                             00000001
STR1C                             00000002
STR1D                             00000003
STR1SYNC                          00000004
STR2A                             00000000
STR2B                             00000001
STR2C                             00000002
STR2D                             00000003
STR2SYNC                          00000004
STR3A                             00000000
STR3B                             00000001
STR3C                             00000002
STR3D                             00000003
STR3SYNC                          00000004
SWDTE                             00000000
SWDTEN                            00000000
SYNC                              00000004
SYNC1                             00000004
SYNC2                             00000004
Sample_Buf                        00000316
Sample_Buf_1                      00000354
Start                             0000001A
Startup_Mes                       000012F0
T08BIT                            00000006
T0CKI                             00000004
T0CON                             00000FD5
T0CS                              00000005
T0IE                              00000005
MPASM 5.87                      COMPLETE.ASM   6-24-2020  7:08:30         PAGE 70


SYMBOL TABLE
  LABEL                             VALUE 

T0IF                              00000002
T0PS0                             00000000
T0PS1                             00000001
T0PS2                             00000002
T0SE                              00000004
T1CKI                             00000000
T1CKPS0                           00000004
T1CKPS1                           00000005
T1CON                             00000FCD
T1G                               00000005
T1GCON                            00000FCC
T1GGO                             00000003
T1GGO_NOT_DONE                    00000003
T1GPOL                            00000006
T1GSPM                            00000004
T1GSS0                            00000000
T1GSS1                            00000001
T1GTM                             00000005
T1GVAL                            00000002
T1G_DONE                          00000003
T1OSCEN                           00000003
T1OSI                             00000001
T1OSO                             00000000
T1RD16                            00000001
T1SOSCEN                          00000003
T1SYNC                            00000002
T2CKPS0                           00000000
T2CKPS1                           00000001
T2CON                             00000FBA
T2OUTPS0                          00000003
T2OUTPS1                          00000004
T2OUTPS2                          00000005
T2OUTPS3                          00000006
T3CKI_PORTB                       00000005
T3CKI_PORTC                       00000000
T3CKPS0                           00000004
T3CKPS1                           00000005
T3CON                             00000FB1
T3G                               00000000
T3GCON                            00000FB4
T3GGO                             00000003
T3GGO_NOT_DONE                    00000003
T3GPOL                            00000006
T3GSPM                            00000004
T3GSS0                            00000000
T3GSS1                            00000001
T3GTM                             00000005
T3GVAL                            00000002
T3G_DONE                          00000003
T3OSCEN                           00000003
T3RD16                            00000001
T3SOSCEN                          00000003
T4CKPS0                           00000000
MPASM 5.87                      COMPLETE.ASM   6-24-2020  7:08:30         PAGE 71


SYMBOL TABLE
  LABEL                             VALUE 

T4CKPS1                           00000001
T4CON                             00000F51
T4OUTPS0                          00000003
T4OUTPS1                          00000004
T4OUTPS2                          00000005
T4OUTPS3                          00000006
T5CKI                             00000002
T5CKPS0                           00000004
T5CKPS1                           00000005
T5CON                             00000F4E
T5G                               00000004
T5GCON                            00000F4D
T5GGO                             00000003
T5GGO_NOT_DONE                    00000003
T5GPOL                            00000006
T5GSPM                            00000004
T5GSS0                            00000000
T5GSS1                            00000001
T5GTM                             00000005
T5GVAL                            00000002
T5G_DONE                          00000003
T5RD16                            00000001
T5SOSCEN                          00000003
T5SYNC                            00000002
T6CKPS0                           00000000
T6CKPS1                           00000001
T6CON                             00000F4A
T6OUTPS0                          00000003
T6OUTPS1                          00000004
T6OUTPS2                          00000005
T6OUTPS3                          00000006
TABLAT                            00000FF5
TBLPTR                            00000FF6
TBLPTRH                           00000FF7
TBLPTRL                           00000FF6
TBLPTRU                           00000FF8
TGEN                              00000004
TIME_TEST                         00000012
TMR0                              00000FD6
TMR0H                             00000FD7
TMR0IE                            00000005
TMR0IF                            00000002
TMR0IP                            00000002
TMR0L                             00000FD6
TMR0ON                            00000007
TMR1                              00000FCE
TMR1CS0                           00000006
TMR1CS1                           00000007
TMR1GE                            00000007
TMR1GIE                           00000000
TMR1GIF                           00000000
TMR1GIP                           00000000
TMR1H                             00000FCF
MPASM 5.87                      COMPLETE.ASM   6-24-2020  7:08:30         PAGE 72


SYMBOL TABLE
  LABEL                             VALUE 

TMR1IE                            00000000
TMR1IF                            00000000
TMR1IP                            00000000
TMR1L                             00000FCE
TMR1MD                            00000000
TMR1ON                            00000000
TMR2                              00000FBC
TMR2IE                            00000001
TMR2IF                            00000001
TMR2IP                            00000001
TMR2MD                            00000001
TMR2ON                            00000002
TMR3                              00000FB2
TMR3CS0                           00000006
TMR3CS1                           00000007
TMR3GE                            00000007
TMR3GIE                           00000001
TMR3GIF                           00000001
TMR3GIP                           00000001
TMR3H                             00000FB3
TMR3IE                            00000001
TMR3IF                            00000001
TMR3IP                            00000001
TMR3L                             00000FB2
TMR3MD                            00000002
TMR3ON                            00000000
TMR4                              00000F53
TMR4IE                            00000000
TMR4IF                            00000000
TMR4IP                            00000000
TMR4MD                            00000003
TMR4ON                            00000002
TMR5                              00000F4F
TMR5CS0                           00000006
TMR5CS1                           00000007
TMR5GE                            00000007
TMR5GIE                           00000002
TMR5GIF                           00000002
TMR5GIP                           00000002
TMR5H                             00000F50
TMR5IE                            00000001
TMR5IF                            00000001
TMR5IP                            00000001
TMR5L                             00000F4F
TMR5MD                            00000004
TMR5ON                            00000000
TMR6                              00000F4C
TMR6IE                            00000002
TMR6IF                            00000002
TMR6IP                            00000002
TMR6MD                            00000005
TMR6ON                            00000002
TO                                00000003
MPASM 5.87                      COMPLETE.ASM   6-24-2020  7:08:30         PAGE 73


SYMBOL TABLE
  LABEL                             VALUE 

TOS                               00000FFD
TOSH                              00000FFE
TOSL                              00000FFD
TOSU                              00000FFF
TRIGSEL                           00000007
TRISA                             00000F92
TRISA0                            00000000
TRISA1                            00000001
TRISA2                            00000002
TRISA3                            00000003
TRISA4                            00000004
TRISA5                            00000005
TRISA6                            00000006
TRISA7                            00000007
TRISB                             00000F93
TRISB0                            00000000
TRISB1                            00000001
TRISB2                            00000002
TRISB3                            00000003
TRISB4                            00000004
TRISB5                            00000005
TRISB6                            00000006
TRISB7                            00000007
TRISC                             00000F94
TRISC0                            00000000
TRISC1                            00000001
TRISC2                            00000002
TRISC3                            00000003
TRISC4                            00000004
TRISC5                            00000005
TRISC6                            00000006
TRISC7                            00000007
TRISD                             00000F95
TRISD0                            00000000
TRISD1                            00000001
TRISD2                            00000002
TRISD3                            00000003
TRISD4                            00000004
TRISD5                            00000005
TRISD6                            00000006
TRISD7                            00000007
TRISE                             00000F96
TRISE0                            00000000
TRISE1                            00000001
TRISE2                            00000002
TRMT                              00000001
TRMT1                             00000001
TRMT2                             00000001
TUN0                              00000000
TUN1                              00000001
TUN2                              00000002
TUN3                              00000003
TUN4                              00000004
MPASM 5.87                      COMPLETE.ASM   6-24-2020  7:08:30         PAGE 74


SYMBOL TABLE
  LABEL                             VALUE 

TUN5                              00000005
TX                                00000006
TX1                               00000006
TX1IE                             00000004
TX1IF                             00000004
TX1IP                             00000004
TX1REG                            00000FAD
TX1STA                            00000FAC
TX2                               00000006
TX2IE                             00000004
TX2IF                             00000004
TX2IP                             00000004
TX2REG                            00000F73
TX2STA                            00000F72
TX9                               00000006
TX91                              00000006
TX92                              00000006
TX9D                              00000000
TX9D1                             00000000
TX9D2                             00000000
TXEN                              00000005
TXEN1                             00000005
TXEN2                             00000005
TXIE                              00000004
TXIF                              00000004
TXIP                              00000004
TXREG                             00000FAD
TXREG1                            00000FAD
TXREG2                            00000F73
TXSTA                             00000FAC
TXSTA1                            00000FAC
TXSTA2                            00000F72
Temp                              00000027
TimeAvg                           0000001E
TimeAvgOld                        0000001D
Timecnt                           0000001C
Timecnt1                          0000002C
UA                                00000001
UART1MD                           00000006
UART2MD                           00000007
UNPBCDA                           00000030
VDIRMAG                           00000007
VPP                               00000003
VREFCON0                          00000F42
VREFCON1                          00000F41
VREFCON2                          00000F40
VREFM                             00000002
VREFN                             00000002
VREFP                             00000003
W                                 00000000
WAIT_FUNC                         000004DE
WCOL                              00000007
WDTCON                            00000FD1
MPASM 5.87                      COMPLETE.ASM   6-24-2020  7:08:30         PAGE 75


SYMBOL TABLE
  LABEL                             VALUE 

WPUB                              00000F61
WPUB0                             00000000
WPUB1                             00000001
WPUB2                             00000002
WPUB3                             00000003
WPUB4                             00000004
WPUB5                             00000005
WPUB6                             00000006
WPUB7                             00000007
WPUE3                             00000007
WR                                00000001
WREG                              00000FE8
WREN                              00000002
WRERR                             00000003
WUE                               00000001
Y1                                00000028
Z                                 00000002
_.org_1_010C                      0000010C
_.org_1_0126                      00000126
_.org_1_0140                      00000140
_.org_1_015A                      0000015A
_.org_1_0172                      00000172
_.org_1_0188                      00000188
_.org_1_031A                      0000031A
_.org_1_0358                      00000358
_.org_1_04E0                      000004E0
_.org_1_051E                      0000051E
_.org_1_165E                      0000165E
_BOREN_NOSLP_2L                   000000FD
_BOREN_OFF_2L                     000000F9
_BOREN_ON_2L                      000000FB
_BOREN_SBORDIS_2L                 000000FF
_BORV_190_2L                      000000FF
_BORV_220_2L                      000000F7
_BORV_250_2L                      000000EF
_BORV_285_2L                      000000E7
_CCP2MX_PORTB3_3H                 000000FE
_CCP2MX_PORTC1_3H                 000000FF
_CCP3MX_PORTB5_3H                 000000FF
_CCP3MX_PORTE0_3H                 000000FB
_CONFIG1H                         00300001
_CONFIG2H                         00300003
_CONFIG2L                         00300002
_CONFIG3H                         00300005
_CONFIG4L                         00300006
_CONFIG5H                         00300009
_CONFIG5L                         00300008
_CONFIG6H                         0030000B
_CONFIG6L                         0030000A
_CONFIG7H                         0030000D
_CONFIG7L                         0030000C
_CP0_OFF_5L                       000000FF
_CP0_ON_5L                        000000FE
MPASM 5.87                      COMPLETE.ASM   6-24-2020  7:08:30         PAGE 76


SYMBOL TABLE
  LABEL                             VALUE 

_CP1_OFF_5L                       000000FF
_CP1_ON_5L                        000000FD
_CP2_OFF_5L                       000000FF
_CP2_ON_5L                        000000FB
_CP3_OFF_5L                       000000FF
_CP3_ON_5L                        000000F7
_CPB_OFF_5H                       000000FF
_CPB_ON_5H                        000000BF
_CPD_OFF_5H                       000000FF
_CPD_ON_5H                        0000007F
_DEBUG_OFF_4L                     000000FF
_DEBUG_ON_4L                      0000007F
_DEVID1                           003FFFFE
_DEVID2                           003FFFFF
_EBTR0_OFF_7L                     000000FF
_EBTR0_ON_7L                      000000FE
_EBTR1_OFF_7L                     000000FF
_EBTR1_ON_7L                      000000FD
_EBTR2_OFF_7L                     000000FF
_EBTR2_ON_7L                      000000FB
_EBTR3_OFF_7L                     000000FF
_EBTR3_ON_7L                      000000F7
_EBTRB_OFF_7H                     000000FF
_EBTRB_ON_7H                      000000BF
_FCMEN_OFF_1H                     000000BF
_FCMEN_ON_1H                      000000FF
_FOSC_ECHPIO6_1H                  000000F5
_FOSC_ECHP_1H                     000000F4
_FOSC_ECLPIO6_1H                  000000FD
_FOSC_ECLP_1H                     000000FC
_FOSC_ECMPIO6_1H                  000000FB
_FOSC_ECMP_1H                     000000FA
_FOSC_HSHP_1H                     000000F2
_FOSC_HSMP_1H                     000000F3
_FOSC_INTIO67_1H                  000000F8
_FOSC_INTIO7_1H                   000000F9
_FOSC_LP_1H                       000000F0
_FOSC_RCIO6_1H                    000000F7
_FOSC_RC_1H                       000000F6
_FOSC_XT_1H                       000000F1
_HFOFST_OFF_3H                    000000F7
_HFOFST_ON_3H                     000000FF
_IDLOC0                           00200000
_IDLOC1                           00200001
_IDLOC2                           00200002
_IDLOC3                           00200003
_IDLOC4                           00200004
_IDLOC5                           00200005
_IDLOC6                           00200006
_IDLOC7                           00200007
_IESO_OFF_1H                      0000007F
_IESO_ON_1H                       000000FF
_LVP_OFF_4L                       000000FB
MPASM 5.87                      COMPLETE.ASM   6-24-2020  7:08:30         PAGE 77


SYMBOL TABLE
  LABEL                             VALUE 

_LVP_ON_4L                        000000FF
_MCLRE_EXTMCLR_3H                 000000FF
_MCLRE_INTMCLR_3H                 0000007F
_P2BMX_PORTC0_3H                  000000DF
_P2BMX_PORTD2_3H                  000000FF
_PBADEN_OFF_3H                    000000FD
_PBADEN_ON_3H                     000000FF
_PLLCFG_OFF_1H                    000000EF
_PLLCFG_ON_1H                     000000FF
_PRICLKEN_OFF_1H                  000000DF
_PRICLKEN_ON_1H                   000000FF
_PWRTEN_OFF_2L                    000000FF
_PWRTEN_ON_2L                     000000FE
_STVREN_OFF_4L                    000000FE
_STVREN_ON_4L                     000000FF
_T3CMX_PORTB5_3H                  000000EF
_T3CMX_PORTC0_3H                  000000FF
_WDTEN_NOSLP_2H                   000000FD
_WDTEN_OFF_2H                     000000FC
_WDTEN_ON_2H                      000000FF
_WDTEN_SWON_2H                    000000FE
_WDTPS_1024_2H                    000000EB
_WDTPS_128_2H                     000000DF
_WDTPS_16384_2H                   000000FB
_WDTPS_16_2H                      000000D3
_WDTPS_1_2H                       000000C3
_WDTPS_2048_2H                    000000EF
_WDTPS_256_2H                     000000E3
_WDTPS_2_2H                       000000C7
_WDTPS_32768_2H                   000000FF
_WDTPS_32_2H                      000000D7
_WDTPS_4096_2H                    000000F3
_WDTPS_4_2H                       000000CB
_WDTPS_512_2H                     000000E7
_WDTPS_64_2H                      000000DB
_WDTPS_8192_2H                    000000F7
_WDTPS_8_2H                       000000CF
_WRT0_OFF_6L                      000000FF
_WRT0_ON_6L                       000000FE
_WRT1_OFF_6L                      000000FF
_WRT1_ON_6L                       000000FD
_WRT2_OFF_6L                      000000FF
_WRT2_ON_6L                       000000FB
_WRT3_OFF_6L                      000000FF
_WRT3_ON_6L                       000000F7
_WRTB_OFF_6H                      000000FF
_WRTB_ON_6H                       000000BF
_WRTC_OFF_6H                      000000FF
_WRTC_ON_6H                       000000DF
_WRTD_OFF_6H                      000000FF
_WRTD_ON_6H                       0000007F
_XINST_OFF_4L                     000000BF
_XINST_ON_4L                      000000FF
MPASM 5.87                      COMPLETE.ASM   6-24-2020  7:08:30         PAGE 78


SYMBOL TABLE
  LABEL                             VALUE 

__18F45K22                        00000001

Errors   :     0
Warnings :    10 reported,     0 suppressed
Messages :     0 reported,     0 suppressed

